libapt-pkg.so.6.0 libapt-pkg6.0 #MINVER#
* Build-Depends-Package: libapt-pkg-dev
 APTPKG_6.0@APTPKG_6.0 1.1~exp9
 TFRewritePackageOrder@APTPKG_6.0 0.8.0
 TFRewriteSourceOrder@APTPKG_6.0 0.8.0
 _Z10FileExistsNSt7__cxx1112basic_stringIcSt11char_traitsIcESaIcEEE@APTPKG_6.0 0.8.0
 _Z10GetTempDirB5cxx11v@APTPKG_6.0 0.9.14.2
 _Z10GetTempDirRKNSt7__cxx1112basic_stringIcSt11char_traitsIcESaIcEEE@APTPKG_6.0 1.1~exp15
 _Z10IdentCdromNSt7__cxx1112basic_stringIcSt11char_traitsIcESaIcEEERS4_j@APTPKG_6.0 0.8.0
 _Z10ListUpdateR16pkgAcquireStatusR13pkgSourceListi@APTPKG_6.0 0.8.0
 _Z10MountCdromNSt7__cxx1112basic_stringIcSt11char_traitsIcESaIcEEES4_@APTPKG_6.0 0.8.0
 _Z10ParseCWordRPKcRNSt7__cxx1112basic_stringIcSt11char_traitsIcESaIcEEE@APTPKG_6.0 0.8.0
 _Z10ReadPinDirR9pkgPolicyNSt7__cxx1112basic_stringIcSt11char_traitsIcESaIcEEE@APTPKG_6.0 0.8.0
 _Z10RemoveFilePKcRKNSt7__cxx1112basic_stringIcSt11char_traitsIcESaIcEEE@APTPKG_6.0 1.1~exp15
 _Z10RunScriptsPKc@APTPKG_6.0 0.8.0
 _Z10SafeGetCWDB5cxx11v@APTPKG_6.0 0.8.0
 _Z10StripEpochRKNSt7__cxx1112basic_stringIcSt11char_traitsIcESaIcEEE@APTPKG_6.0 0.8.11
 _Z10_strrstripPc@APTPKG_6.0 0.9.7.9~exp2
 _Z11GetTempFileRKNSt7__cxx1112basic_stringIcSt11char_traitsIcESaIcEEEbP6FileFd@APTPKG_6.0 1.1~exp9
 _Z11QuoteStringRKNSt7__cxx1112basic_stringIcSt11char_traitsIcESaIcEEEPKc@APTPKG_6.0 0.8.0
 _Z11ReadPinFileR9pkgPolicyNSt7__cxx1112basic_stringIcSt11char_traitsIcESaIcEEE@APTPKG_6.0 0.8.0
 _Z11RegexChoiceP12RxChoiceListPPKcS3_@APTPKG_6.0 0.8.0
 _Z11SetNonBlockib@APTPKG_6.0 0.8.0
 _Z11StringSplitRKNSt7__cxx1112basic_stringIcSt11char_traitsIcESaIcEEES6_j@APTPKG_6.0 0.9.11.3
 _Z11TimeRFC1123B5cxx11lb@APTPKG_6.0 1.3~rc2
 _Z11flExtensionNSt7__cxx1112basic_stringIcSt11char_traitsIcESaIcEEE@APTPKG_6.0 0.8.0
 _Z11strv_lengthPPKc@APTPKG_6.0 0.9.11
 _Z12Base256ToNumPKcRmj@APTPKG_6.0 0.8.11
 _Z12Base256ToNumPKcRyj@APTPKG_6.0 1.0.5
 _Z12Base64EncodeRKNSt7__cxx1112basic_stringIcSt11char_traitsIcESaIcEEE@APTPKG_6.0 0.8.0
 _Z12MaybeAddAuthR6FileFdR3URI@APTPKG_6.0 1.5~beta2~
 _Z12ReadMessagesiRSt6vectorINSt7__cxx1112basic_stringIcSt11char_traitsIcESaIcEEESaIS5_EE@APTPKG_6.0 0.8.0
 _Z12RemoveFileAtPKciRKNSt7__cxx1112basic_stringIcSt11char_traitsIcESaIcEEE@APTPKG_6.0 1.5~beta2~
 _Z12SetCloseExecib@APTPKG_6.0 0.8.0
 _Z12StringToBoolRKNSt7__cxx1112basic_stringIcSt11char_traitsIcESaIcEEEi@APTPKG_6.0 0.8.0
 _Z12UnmountCdromNSt7__cxx1112basic_stringIcSt11char_traitsIcESaIcEEE@APTPKG_6.0 0.8.0
 _Z12_GetErrorObjv@APTPKG_6.0 0.8.0
 _Z12pkgFixBrokenR11pkgDepCache@APTPKG_6.0 0.8.0
 _Z13AcquireUpdateR10pkgAcquireibb@APTPKG_6.0 0.9.3
 _Z13DeQuoteStringRKN9__gnu_cxx17__normal_iteratorIPKcNSt7__cxx1112basic_stringIcSt11char_traitsIcESaIcEEEEESB_@APTPKG_6.0 0.8.0
 _Z13DeQuoteStringRKNSt7__cxx1112basic_stringIcSt11char_traitsIcESaIcEEE@APTPKG_6.0 0.8.0
 _Z13GetSrvRecordsNSt7__cxx1112basic_stringIcSt11char_traitsIcESaIcEEERSt6vectorI6SrvRecSaIS6_EE@APTPKG_6.0 1.1~exp15
 _Z13GetSrvRecordsNSt7__cxx1112basic_stringIcSt11char_traitsIcESaIcEEEiRSt6vectorI6SrvRecSaIS6_EE@APTPKG_6.0 1.1~exp15
 _Z13OutputInDepthB5cxx11mPKc@APTPKG_6.0 0.8.0
 _Z13ReadConfigDirR13ConfigurationRKNSt7__cxx1112basic_stringIcSt11char_traitsIcESaIcEEERKbRKj@APTPKG_6.0 0.8.0
 _Z13URItoFileNameRKNSt7__cxx1112basic_stringIcSt11char_traitsIcESaIcEEE@APTPKG_6.0 0.8.0
 _Z13UTF8ToCodesetPKcRKNSt7__cxx1112basic_stringIcSt11char_traitsIcESaIcEEEPS6_@APTPKG_6.0 0.8.0
 _Z13_strtabexpandPcm@APTPKG_6.0 0.8.0
 _Z13pkgInitConfigR13Configuration@APTPKG_6.0 0.8.0
 _Z13pkgInitSystemR13ConfigurationRP9pkgSystem@APTPKG_6.0 0.8.0
 _Z13safe_snprintfPcS_PKcz@APTPKG_6.0 0.8.0
 _Z13stringcasecmpN9__gnu_cxx17__normal_iteratorIPKcNSt7__cxx1112basic_stringIcSt11char_traitsIcESaIcEEEEES9_S2_S2_@APTPKG_6.0 0.8.0
 _Z13stringcasecmpN9__gnu_cxx17__normal_iteratorIPKcNSt7__cxx1112basic_stringIcSt11char_traitsIcESaIcEEEEES9_S9_S9_@APTPKG_6.0 0.8.0
 _Z13stringcasecmpPKcS0_S0_S0_@APTPKG_6.0 0.8.0
 _Z14DeEscapeStringRKNSt7__cxx1112basic_stringIcSt11char_traitsIcESaIcEEE@APTPKG_6.0 0.8.15.4
 _Z14DropPrivilegesv@APTPKG_6.0 1.1~exp4
 _Z14ParseQuoteWordRPKcRNSt7__cxx1112basic_stringIcSt11char_traitsIcESaIcEEE@APTPKG_6.0 0.8.0
 _Z14PopFromSrvRecsRSt6vectorI6SrvRecSaIS0_EE@APTPKG_6.0 1.1~exp15
 _Z14ReadConfigFileR13ConfigurationRKNSt7__cxx1112basic_stringIcSt11char_traitsIcESaIcEEERKbRKj@APTPKG_6.0 0.8.0
 _Z14RealFileExistsNSt7__cxx1112basic_stringIcSt11char_traitsIcESaIcEEE@APTPKG_6.0 0.8.11
 _Z14TokSplitStringcPcPS_m@APTPKG_6.0 0.8.0
 _Z14pkgApplyStatusR11pkgDepCache@APTPKG_6.0 0.8.0
 _Z15AutoDetectProxyR3URI@APTPKG_6.0 0.9.10
 _Z15CheckDomainListRKNSt7__cxx1112basic_stringIcSt11char_traitsIcESaIcEEES6_@APTPKG_6.0 0.8.0
 _Z15CreateDirectoryRKNSt7__cxx1112basic_stringIcSt11char_traitsIcESaIcEEES6_@APTPKG_6.0 0.8.0
 _Z15DirectoryExistsRKNSt7__cxx1112basic_stringIcSt11char_traitsIcESaIcEEE@APTPKG_6.0 0.8.0
 _Z15VectorizeStringRKNSt7__cxx1112basic_stringIcSt11char_traitsIcESaIcEEERKc@APTPKG_6.0 0.8.0
 _Z15pkgPrioSortListR8pkgCachePPNS_7VersionE@APTPKG_6.0 0.8.0
 _Z16FTPMDTMStrToTimePKcRl@APTPKG_6.0 0.8.0
 _Z16RFC1123StrToTimeRKNSt7__cxx1112basic_stringIcSt11char_traitsIcESaIcEEERl@APTPKG_6.0 1.9.0
 _Z18pkgMinimizeUpgradeR11pkgDepCache@APTPKG_6.0 0.8.0
 _Z19GetListOfFilesInDirRKNSt7__cxx1112basic_stringIcSt11char_traitsIcESaIcEEERKSt6vectorIS4_SaIS4_EERKb@APTPKG_6.0 0.8.0
 _Z19GetListOfFilesInDirRKNSt7__cxx1112basic_stringIcSt11char_traitsIcESaIcEEES6_RKbS8_@APTPKG_6.0 0.8.0
 _Z19GetListOfFilesInDirRKNSt7__cxx1112basic_stringIcSt11char_traitsIcESaIcEEEb@APTPKG_6.0 0.8.16~exp13
 _Z19GetModificationTimeRKNSt7__cxx1112basic_stringIcSt11char_traitsIcESaIcEEE@APTPKG_6.0 0.8.15.6
 _Z20SplitClearSignedFileRKNSt7__cxx1112basic_stringIcSt11char_traitsIcESaIcEEEP6FileFdPSt6vectorIS4_SaIS4_EES8_@APTPKG_6.0 0.9.7.9~exp2
 _Z23FindMountPointForDeviceB5cxx11PKc@APTPKG_6.0 0.8.12
 _Z24OpenMaybeClearSignedFileRKNSt7__cxx1112basic_stringIcSt11char_traitsIcESaIcEEER6FileFd@APTPKG_6.0 0.9.7.9~exp2
 _Z26CreateAPTDirectoryIfNeededRKNSt7__cxx1112basic_stringIcSt11char_traitsIcESaIcEEES6_@APTPKG_6.0 0.8.2
 _Z29MergeKeepFdsFromConfigurationRSt3setIiSt4lessIiESaIiEE@APTPKG_6.0 0.9.13.1
 _Z30ChangeOwnerAndPermissionOfFilePKcS0_S0_S0_j@APTPKG_6.0 1.1~exp9
 _Z31StartsWithGPGClearTextSignatureRKNSt7__cxx1112basic_stringIcSt11char_traitsIcESaIcEEE@APTPKG_6.0 1.1~exp1
 _Z4GlobRKNSt7__cxx1112basic_stringIcSt11char_traitsIcESaIcEEEi@APTPKG_6.0 0.9.11
 _Z5PopenPPKcR6FileFdRiNS2_8OpenModeEbb@APTPKG_6.0 1.9.0~
 _Z6RenameNSt7__cxx1112basic_stringIcSt11char_traitsIcESaIcEEES4_@APTPKG_6.0 0.9.16
 _Z6WaitFdibm@APTPKG_6.0 0.8.0
 _Z7GetLockNSt7__cxx1112basic_stringIcSt11char_traitsIcESaIcEEEb@APTPKG_6.0 0.8.0
 _Z7Hex2NumN3APT10StringViewEPhj@APTPKG_6.0 1.9~
 _Z8CopyFileR6FileFdS0_@APTPKG_6.0 0.8.0
 _Z8ExecForkSt3setIiSt4lessIiESaIiEE@APTPKG_6.0 0.9.13.1
 _Z8ExecForkv@APTPKG_6.0 0.8.0
 _Z8ExecGPGVRKNSt7__cxx1112basic_stringIcSt11char_traitsIcESaIcEEES6_RKiPiS6_@APTPKG_6.0 1.1~exp9
 _Z8ExecWaitiPKcb@APTPKG_6.0 0.8.0
 _Z8StrToNumPKcRmjj@APTPKG_6.0 0.8.0
 _Z8StrToNumPKcRyjj@APTPKG_6.0 0.8.16~exp6
 _Z8SubstVarNSt7__cxx1112basic_stringIcSt11char_traitsIcESaIcEEEPK8SubstVar@APTPKG_6.0 0.8.0
 _Z8SubstVarRKNSt7__cxx1112basic_stringIcSt11char_traitsIcESaIcEEES6_S6_@APTPKG_6.0 0.8.0
 _Z8flNoLinkNSt7__cxx1112basic_stringIcSt11char_traitsIcESaIcEEE@APTPKG_6.0 0.8.0
 _Z8flNotDirNSt7__cxx1112basic_stringIcSt11char_traitsIcESaIcEEE@APTPKG_6.0 0.8.0
 _Z8ioprintfRSoPKcz@APTPKG_6.0 0.8.0
 _Z9IsMountedRNSt7__cxx1112basic_stringIcSt11char_traitsIcESaIcEEE@APTPKG_6.0 0.8.0
 _Z9LookupTagRKNSt7__cxx1112basic_stringIcSt11char_traitsIcESaIcEEEPKcS8_@APTPKG_6.0 0.8.0
 _Z9SizeToStrB5cxx11d@APTPKG_6.0 0.8.0
 _Z9TimeToStrB5cxx11m@APTPKG_6.0 0.8.0
 _Z9_strstripPc@APTPKG_6.0 0.8.0
 _Z9flAbsPathNSt7__cxx1112basic_stringIcSt11char_traitsIcESaIcEEE@APTPKG_6.0 1.1~exp1
 _Z9flCombineNSt7__cxx1112basic_stringIcSt11char_traitsIcESaIcEEES4_@APTPKG_6.0 0.8.0
 _Z9flNotFileNSt7__cxx1112basic_stringIcSt11char_traitsIcESaIcEEE@APTPKG_6.0 0.8.0
 _Z9stringcmpN9__gnu_cxx17__normal_iteratorIPKcNSt7__cxx1112basic_stringIcSt11char_traitsIcESaIcEEEEES9_S2_S2_@APTPKG_6.0 0.8.0
 _Z9stringcmpN9__gnu_cxx17__normal_iteratorIPKcNSt7__cxx1112basic_stringIcSt11char_traitsIcESaIcEEEEES9_S9_S9_@APTPKG_6.0 0.8.0
 _Z9stringcmpPKcS0_S0_S0_@APTPKG_6.0 0.8.0
 _Z9strprintfRNSt7__cxx1112basic_stringIcSt11char_traitsIcESaIcEEEPKcz@APTPKG_6.0 0.8.0
 _ZN10ExtractTar2GoER12pkgDirStream@APTPKG_6.0 0.8.0
 _ZN10ExtractTar4DoneEv@APTPKG_6.0 1.1~exp12
 _ZN10ExtractTar9StartGzipEv@APTPKG_6.0 0.8.0
 _ZN10ExtractTarC1ER6FileFdyNSt7__cxx1112basic_stringIcSt11char_traitsIcESaIcEEE@APTPKG_6.0 1.0.5
 _ZN10ExtractTarC2ER6FileFdyNSt7__cxx1112basic_stringIcSt11char_traitsIcESaIcEEE@APTPKG_6.0 1.0.5
 _ZN10ExtractTarD0Ev@APTPKG_6.0 0.8.0
 _ZN10ExtractTarD1Ev@APTPKG_6.0 0.8.0
 _ZN10ExtractTarD2Ev@APTPKG_6.0 0.8.0
 _ZN10HashString15SupportedHashesEv@APTPKG_6.0 0.8.0
 _ZN10HashString16_SupportedHashesE@APTPKG_6.0 0.8.0
 _ZN10HashString8FromFileENSt7__cxx1112basic_stringIcSt11char_traitsIcESaIcEEE@APTPKG_6.0 0.9.13.1
 _ZN10HashStringC1ENSt7__cxx1112basic_stringIcSt11char_traitsIcESaIcEEE@APTPKG_6.0 0.8.0
 _ZN10HashStringC1ENSt7__cxx1112basic_stringIcSt11char_traitsIcESaIcEEES5_@APTPKG_6.0 0.8.0
 _ZN10HashStringC1Ev@APTPKG_6.0 0.8.0
 _ZN10HashStringC2ENSt7__cxx1112basic_stringIcSt11char_traitsIcESaIcEEE@APTPKG_6.0 0.8.0
 _ZN10HashStringC2ENSt7__cxx1112basic_stringIcSt11char_traitsIcESaIcEEES5_@APTPKG_6.0 0.8.0
 _ZN10HashStringC2Ev@APTPKG_6.0 0.8.0
 _ZN10OpProgress11CheckChangeEf@APTPKG_6.0 0.8.0
 _ZN10OpProgress11SubProgressEyRKNSt7__cxx1112basic_stringIcSt11char_traitsIcESaIcEEEf@APTPKG_6.0 0.8.16~exp6
 _ZN10OpProgress15OverallProgressEyyyRKNSt7__cxx1112basic_stringIcSt11char_traitsIcESaIcEEE@APTPKG_6.0 0.8.16~exp6
 _ZN10OpProgress8ProgressEy@APTPKG_6.0 0.8.16~exp6
 _ZN10OpProgressC1Ev@APTPKG_6.0 0.8.0
 _ZN10OpProgressC2Ev@APTPKG_6.0 0.8.0
 _ZN10SourceCopy12RewriteEntryER6FileFdRKNSt7__cxx1112basic_stringIcSt11char_traitsIcESaIcEEE@APTPKG_6.0 1.1~exp9
 _ZN10SourceCopy7GetFileERNSt7__cxx1112basic_stringIcSt11char_traitsIcESaIcEEERy@APTPKG_6.0 0.8.16~exp6
 _ZN10SourceCopyC1Ev@APTPKG_6.0 1.1~exp9
 _ZN10SourceCopyC2Ev@APTPKG_6.0 1.1~exp9
 _ZN10SourceCopyD0Ev@APTPKG_6.0 0.8.0
 _ZN10SourceCopyD1Ev@APTPKG_6.0 0.8.0
 _ZN10SourceCopyD2Ev@APTPKG_6.0 0.8.0
 _ZN10debDebFile10GotoMemberEPKc@APTPKG_6.0 0.8.0
 _ZN10debDebFile11CheckMemberEPKc@APTPKG_6.0 0.8.0
 _ZN10debDebFile14ControlExtract6DoItemERN12pkgDirStream4ItemERi@APTPKG_6.0 0.8.0
 _ZN10debDebFile14ExtractArchiveER12pkgDirStream@APTPKG_6.0 0.8.0
 _ZN10debDebFile16ExtractTarMemberER12pkgDirStreamPKc@APTPKG_6.0 0.9.15.4
 _ZN10debDebFile17MemControlExtract11TakeControlEPKvy@APTPKG_6.0 1.0.5
 _ZN10debDebFile17MemControlExtract4ReadERS_@APTPKG_6.0 0.8.0
 _ZN10debDebFile17MemControlExtract6DoItemERN12pkgDirStream4ItemERi@APTPKG_6.0 0.8.0
 _ZN10debDebFile17MemControlExtract7ProcessERN12pkgDirStream4ItemEPKhyy@APTPKG_6.0 1.0.5
 _ZN10debDebFileC1ER6FileFd@APTPKG_6.0 0.8.0
 _ZN10debDebFileC2ER6FileFd@APTPKG_6.0 0.8.0
 _ZN10pkgAcqFile4DoneERKNSt7__cxx1112basic_stringIcSt11char_traitsIcESaIcEEERK14HashStringListPKN10pkgAcquire12MethodConfigE@APTPKG_6.0 1.1~exp9
 _ZN10pkgAcqFileC1EP10pkgAcquireRKNSt7__cxx1112basic_stringIcSt11char_traitsIcESaIcEEERK14HashStringListyS9_S9_S9_S9_b@APTPKG_6.0 1.1~exp9
 _ZN10pkgAcqFileC2EP10pkgAcquireRKNSt7__cxx1112basic_stringIcSt11char_traitsIcESaIcEEERK14HashStringListyS9_S9_S9_S9_b@APTPKG_6.0 1.1~exp9
 _ZN10pkgAcqFileD0Ev@APTPKG_6.0 0.8.0
 _ZN10pkgAcqFileD1Ev@APTPKG_6.0 0.8.0
 _ZN10pkgAcqFileD2Ev@APTPKG_6.0 0.8.0
 _ZN10pkgAcquire10WorkerStepEPNS_6WorkerE@APTPKG_6.0 0.8.0
 _ZN10pkgAcquire11FetchNeededEv@APTPKG_6.0 0.8.0
 _ZN10pkgAcquire11TotalNeededEv@APTPKG_6.0 0.8.0
 _ZN10pkgAcquire11UriIteratorC1EPNS_5QueueE@APTPKG_6.0 1.1~exp9
 _ZN10pkgAcquire11UriIteratorC2EPNS_5QueueE@APTPKG_6.0 1.1~exp9
 _ZN10pkgAcquire11UriIteratorD0Ev@APTPKG_6.0 0.8.16~exp6
 _ZN10pkgAcquire11UriIteratorD1Ev@APTPKG_6.0 0.8.16~exp6
 _ZN10pkgAcquire11UriIteratorD2Ev@APTPKG_6.0 0.8.16~exp6
 _ZN10pkgAcquire12MethodConfigC1Ev@APTPKG_6.0 0.8.0
 _ZN10pkgAcquire12MethodConfigC2Ev@APTPKG_6.0 0.8.0
 _ZN10pkgAcquire12MethodConfigD0Ev@APTPKG_6.0 0.8.16~exp6
 _ZN10pkgAcquire12MethodConfigD1Ev@APTPKG_6.0 0.8.16~exp6
 _ZN10pkgAcquire12MethodConfigD2Ev@APTPKG_6.0 0.8.16~exp6
 _ZN10pkgAcquire14PartialPresentEv@APTPKG_6.0 0.8.0
 _ZN10pkgAcquire3AddEPNS_4ItemE@APTPKG_6.0 0.8.0
 _ZN10pkgAcquire3AddEPNS_6WorkerE@APTPKG_6.0 0.8.0
 _ZN10pkgAcquire3RunEi@APTPKG_6.0 0.8.0
 _ZN10pkgAcquire4BumpEv@APTPKG_6.0 0.8.0
 _ZN10pkgAcquire4Item10VerifyDoneERKNSt7__cxx1112basic_stringIcSt11char_traitsIcESaIcEEEPKNS_12MethodConfigE@APTPKG_6.0 1.1~exp9
 _ZN10pkgAcquire4Item11GetItemDescEv@APTPKG_6.0 1.1~exp9
 _ZN10pkgAcquire4Item13RenameOnErrorENS0_18RenameOnErrorStateE@APTPKG_6.0 0.9.12
 _ZN10pkgAcquire4Item19SetActiveSubprocessERKNSt7__cxx1112basic_stringIcSt11char_traitsIcESaIcEEE@APTPKG_6.0 1.1~exp4
 _ZN10pkgAcquire4Item4DoneERKNSt7__cxx1112basic_stringIcSt11char_traitsIcESaIcEEERK14HashStringListPKNS_12MethodConfigE@APTPKG_6.0 1.1~exp9
 _ZN10pkgAcquire4Item5StartERKNSt7__cxx1112basic_stringIcSt11char_traitsIcESaIcEEEy@APTPKG_6.0 1.1~exp9
 _ZN10pkgAcquire4Item6FailedERKNSt7__cxx1112basic_stringIcSt11char_traitsIcESaIcEEEPKNS_12MethodConfigE@APTPKG_6.0 1.1~exp9
 _ZN10pkgAcquire4Item6RenameERKNSt7__cxx1112basic_stringIcSt11char_traitsIcESaIcEEES8_@APTPKG_6.0 1.1~exp9
 _ZN10pkgAcquire4Item7DequeueEv@APTPKG_6.0 1.1~exp4
 _ZN10pkgAcquire4Item8FinishedEv@APTPKG_6.0 0.8.0
 _ZN10pkgAcquire4Item8QueueURIERNS_8ItemDescE@APTPKG_6.0 1.1~exp4
 _ZN10pkgAcquire4ItemC1EPS_@APTPKG_6.0 1.1~exp9
 _ZN10pkgAcquire4ItemC2EPS_@APTPKG_6.0 1.1~exp9
 _ZN10pkgAcquire4ItemD0Ev@APTPKG_6.0 0.8.0
 _ZN10pkgAcquire4ItemD1Ev@APTPKG_6.0 0.8.0
 _ZN10pkgAcquire4ItemD2Ev@APTPKG_6.0 0.8.0
 _ZN10pkgAcquire5CleanENSt7__cxx1112basic_stringIcSt11char_traitsIcESaIcEEE@APTPKG_6.0 0.8.0
 _ZN10pkgAcquire5Queue4BumpEv@APTPKG_6.0 0.8.0
 _ZN10pkgAcquire5Queue5CycleEv@APTPKG_6.0 0.8.0
 _ZN10pkgAcquire5Queue7DequeueEPNS_4ItemE@APTPKG_6.0 0.8.0
 _ZN10pkgAcquire5Queue7EnqueueERNS_8ItemDescE@APTPKG_6.0 0.8.0
 _ZN10pkgAcquire5Queue7StartupEv@APTPKG_6.0 0.8.0
 _ZN10pkgAcquire5Queue8FindItemENSt7__cxx1112basic_stringIcSt11char_traitsIcESaIcEEEPNS_6WorkerE@APTPKG_6.0 0.8.0
 _ZN10pkgAcquire5Queue8ItemDoneEPNS0_5QItemE@APTPKG_6.0 0.8.0
 _ZN10pkgAcquire5Queue8ShutdownEb@APTPKG_6.0 0.8.0
 _ZN10pkgAcquire5QueueC1ERKNSt7__cxx1112basic_stringIcSt11char_traitsIcESaIcEEEPS_@APTPKG_6.0 1.1~exp9
 _ZN10pkgAcquire5QueueC2ERKNSt7__cxx1112basic_stringIcSt11char_traitsIcESaIcEEEPS_@APTPKG_6.0 1.1~exp9
 _ZN10pkgAcquire5QueueD0Ev@APTPKG_6.0 0.8.0
 _ZN10pkgAcquire5QueueD1Ev@APTPKG_6.0 0.8.0
 _ZN10pkgAcquire5QueueD2Ev@APTPKG_6.0 0.8.0
 _ZN10pkgAcquire6RemoveEPNS_4ItemE@APTPKG_6.0 0.8.0
 _ZN10pkgAcquire6RemoveEPNS_6WorkerE@APTPKG_6.0 0.8.0
 _ZN10pkgAcquire6RunFdsEP6fd_setS1_@APTPKG_6.0 0.8.0
 _ZN10pkgAcquire6SetFdsERiP6fd_setS2_@APTPKG_6.0 0.8.0
 _ZN10pkgAcquire6UriEndEv@APTPKG_6.0 0.8.0
 _ZN10pkgAcquire6Worker10OutFdReadyEv@APTPKG_6.0 0.8.0
 _ZN10pkgAcquire6Worker11MediaChangeENSt7__cxx1112basic_stringIcSt11char_traitsIcESaIcEEE@APTPKG_6.0 0.8.0
 _ZN10pkgAcquire6Worker11RunMessagesEv@APTPKG_6.0 0.8.0
 _ZN10pkgAcquire6Worker12CapabilitiesENSt7__cxx1112basic_stringIcSt11char_traitsIcESaIcEEE@APTPKG_6.0 0.8.0
 _ZN10pkgAcquire6Worker12ReadMessagesEv@APTPKG_6.0 0.8.0
 _ZN10pkgAcquire6Worker13MethodFailureEv@APTPKG_6.0 0.8.0
 _ZN10pkgAcquire6Worker17SendConfigurationEv@APTPKG_6.0 0.8.0
 _ZN10pkgAcquire6Worker5PulseEv@APTPKG_6.0 0.8.0
 _ZN10pkgAcquire6Worker5StartEv@APTPKG_6.0 0.8.0
 _ZN10pkgAcquire6Worker8ItemDoneEv@APTPKG_6.0 0.8.0
 _ZN10pkgAcquire6Worker9ConstructEv@APTPKG_6.0 0.8.0
 _ZN10pkgAcquire6Worker9InFdReadyEv@APTPKG_6.0 0.8.0
 _ZN10pkgAcquire6Worker9QueueItemEPNS_5Queue5QItemE@APTPKG_6.0 0.8.0
 _ZN10pkgAcquire6WorkerC1EPNS_12MethodConfigE@APTPKG_6.0 0.8.0
 _ZN10pkgAcquire6WorkerC1EPNS_5QueueEPNS_12MethodConfigEP16pkgAcquireStatus@APTPKG_6.0 0.8.0
 _ZN10pkgAcquire6WorkerC2EPNS_12MethodConfigE@APTPKG_6.0 0.8.0
 _ZN10pkgAcquire6WorkerC2EPNS_5QueueEPNS_12MethodConfigEP16pkgAcquireStatus@APTPKG_6.0 0.8.0
 _ZN10pkgAcquire6WorkerD0Ev@APTPKG_6.0 0.8.0
 _ZN10pkgAcquire6WorkerD1Ev@APTPKG_6.0 0.8.0
 _ZN10pkgAcquire6WorkerD2Ev@APTPKG_6.0 0.8.0
 _ZN10pkgAcquire7DequeueEPNS_4ItemE@APTPKG_6.0 0.8.0
 _ZN10pkgAcquire7EnqueueERNS_8ItemDescE@APTPKG_6.0 0.8.0
 _ZN10pkgAcquire7GetLockERKNSt7__cxx1112basic_stringIcSt11char_traitsIcESaIcEEE@APTPKG_6.0 1.1~exp4
 _ZN10pkgAcquire8ShutdownEv@APTPKG_6.0 0.8.0
 _ZN10pkgAcquire8UriBeginEv@APTPKG_6.0 0.8.0
 _ZN10pkgAcquire9GetConfigENSt7__cxx1112basic_stringIcSt11char_traitsIcESaIcEEE@APTPKG_6.0 0.8.0
 _ZN10pkgAcquire9QueueNameENSt7__cxx1112basic_stringIcSt11char_traitsIcESaIcEEERPKNS_12MethodConfigE@APTPKG_6.0 0.8.0
 _ZN10pkgAcquireC1EP16pkgAcquireStatus@APTPKG_6.0 0.8.0
 _ZN10pkgAcquireC1Ev@APTPKG_6.0 0.8.0
 _ZN10pkgAcquireC2EP16pkgAcquireStatus@APTPKG_6.0 0.8.0
 _ZN10pkgAcquireC2Ev@APTPKG_6.0 0.8.0
 _ZN10pkgAcquireD0Ev@APTPKG_6.0 0.8.0
 _ZN10pkgAcquireD1Ev@APTPKG_6.0 0.8.0
 _ZN10pkgAcquireD2Ev@APTPKG_6.0 0.8.0
 _ZN10pkgRecords6LookupERKN8pkgCache15VerFileIteratorE@APTPKG_6.0 0.8.0
 _ZN10pkgRecords6LookupERKN8pkgCache16DescFileIteratorE@APTPKG_6.0 0.8.0
 _ZN10pkgRecords6ParserC1Ev@APTPKG_6.0 1.1~exp9
 _ZN10pkgRecords6ParserC2Ev@APTPKG_6.0 1.1~exp9
 _ZN10pkgRecords6ParserD0Ev@APTPKG_6.0 1.1~exp9
 _ZN10pkgRecords6ParserD1Ev@APTPKG_6.0 1.1~exp9
 _ZN10pkgRecords6ParserD2Ev@APTPKG_6.0 1.1~exp9
 _ZN10pkgRecordsC1ER8pkgCache@APTPKG_6.0 0.8.0
 _ZN10pkgRecordsC2ER8pkgCache@APTPKG_6.0 0.8.0
 _ZN10pkgRecordsD0Ev@APTPKG_6.0 0.8.0
 _ZN10pkgRecordsD1Ev@APTPKG_6.0 0.8.0
 _ZN10pkgRecordsD2Ev@APTPKG_6.0 0.8.0
 _ZN10pkgTagFile4InitEP6FileFdNS_5FlagsEy@APTPKG_6.0 1.2~exp1
 _ZN10pkgTagFile4InitEP6FileFdy@APTPKG_6.0 1.1~exp1
 _ZN10pkgTagFile4JumpER13pkgTagSectiony@APTPKG_6.0 0.8.16~exp6
 _ZN10pkgTagFile4StepER13pkgTagSection@APTPKG_6.0 0.8.0
 _ZN10pkgTagFile6OffsetEv@APTPKG_6.0 0.8.16~exp6
 _ZN10pkgTagFileC1EP6FileFdNS_5FlagsEy@APTPKG_6.0 1.2~exp1
 _ZN10pkgTagFileC1EP6FileFdy@APTPKG_6.0 0.8.16~exp6
 _ZN10pkgTagFileC2EP6FileFdNS_5FlagsEy@APTPKG_6.0 1.2~exp1
 _ZN10pkgTagFileC2EP6FileFdy@APTPKG_6.0 0.8.16~exp6
 _ZN10pkgTagFileD0Ev@APTPKG_6.0 0.8.0
 _ZN10pkgTagFileD1Ev@APTPKG_6.0 0.8.0
 _ZN10pkgTagFileD2Ev@APTPKG_6.0 0.8.0
 _ZN11CommandLine10GetCommandEPKNS_8DispatchEjPKPKc@APTPKG_6.0 0.9.11
 _ZN11CommandLine11DispatchArgEPKNS_8DispatchEb@APTPKG_6.0 1.1~exp15
 _ZN11CommandLine12SaveInConfigERKjPKPKc@APTPKG_6.0 0.8.0
 _ZN11CommandLine5ParseEiPPKc@APTPKG_6.0 0.8.0
 _ZN11CommandLine8MakeArgsEcPKcS1_m@APTPKG_6.0 0.9.11
 _ZN11CommandLine9HandleOptERiiPPKcRS2_PNS_4ArgsEb@APTPKG_6.0 0.8.0
 _ZN11CommandLineC1EPNS_4ArgsEP13Configuration@APTPKG_6.0 0.8.0
 _ZN11CommandLineC1Ev@APTPKG_6.0 1.1~exp9
 _ZN11CommandLineC2EPNS_4ArgsEP13Configuration@APTPKG_6.0 0.8.0
 _ZN11CommandLineC2Ev@APTPKG_6.0 1.1~exp9
 _ZN11CommandLineD1Ev@APTPKG_6.0 0.8.0
 _ZN11CommandLineD2Ev@APTPKG_6.0 0.8.0
 _ZN11GlobalError10DumpErrorsERSoRKNS_7MsgTypeERKb@APTPKG_6.0 0.8.0
 _ZN11GlobalError10PopMessageERNSt7__cxx1112basic_stringIcSt11char_traitsIcESaIcEEE@APTPKG_6.0 0.8.0
 _ZN11GlobalError11InsertErrnoENS_7MsgTypeEPKcS2_RSt9__va_listiRm@APTPKG_6.0 0.8.11.4
 _ZN11GlobalError11InsertErrnoERKNS_7MsgTypeEPKcS4_z@APTPKG_6.0 0.8.0
 _ZN11GlobalError11PushToStackEv@APTPKG_6.0 0.8.0
 _ZN11GlobalError13RevertToStackEv@APTPKG_6.0 0.8.0
 _ZN11GlobalError14MergeWithStackEv@APTPKG_6.0 0.8.0
 _ZN11GlobalError5DebugEPKcz@APTPKG_6.0 0.8.0
 _ZN11GlobalError5ErrnoEPKcS1_z@APTPKG_6.0 0.8.0
 _ZN11GlobalError5ErrorEPKcz@APTPKG_6.0 0.8.0
 _ZN11GlobalError5FatalEPKcz@APTPKG_6.0 0.8.0
 _ZN11GlobalError6DebugEEPKcS1_z@APTPKG_6.0 0.8.0
 _ZN11GlobalError6FatalEEPKcS1_z@APTPKG_6.0 0.8.0
 _ZN11GlobalError6InsertENS_7MsgTypeEPKcRSt9__va_listRm@APTPKG_6.0 0.8.11.4
 _ZN11GlobalError6InsertERKNS_7MsgTypeEPKcz@APTPKG_6.0 0.8.0
 _ZN11GlobalError6NoticeEPKcz@APTPKG_6.0 0.8.0
 _ZN11GlobalError7DiscardEv@APTPKG_6.0 0.8.0
 _ZN11GlobalError7NoticeEEPKcS1_z@APTPKG_6.0 0.8.0
 _ZN11GlobalError7WarningEPKcz@APTPKG_6.0 0.8.0
 _ZN11GlobalError8WarningEEPKcS1_z@APTPKG_6.0 0.8.0
 _ZN11GlobalErrorC1Ev@APTPKG_6.0 0.8.0
 _ZN11GlobalErrorC2Ev@APTPKG_6.0 0.8.0
 _ZN11IndexTargetC1ERKNSt7__cxx1112basic_stringIcSt11char_traitsIcESaIcEEES7_S7_S7_bbRKSt3mapIS5_S5_St4lessIS5_ESaISt4pairIS6_S5_EEE@APTPKG_6.0 1.1~exp9
 _ZN11IndexTargetC2ERKNSt7__cxx1112basic_stringIcSt11char_traitsIcESaIcEEES7_S7_S7_bbRKSt3mapIS5_S5_St4lessIS5_ESaISt4pairIS6_S5_EEE@APTPKG_6.0 1.1~exp9
 _ZN11PackageCopy12RewriteEntryER6FileFdRKNSt7__cxx1112basic_stringIcSt11char_traitsIcESaIcEEE@APTPKG_6.0 1.1~exp9
 _ZN11PackageCopy7GetFileERNSt7__cxx1112basic_stringIcSt11char_traitsIcESaIcEEERy@APTPKG_6.0 0.8.16~exp6
 _ZN11PackageCopyC1Ev@APTPKG_6.0 1.1~exp9
 _ZN11PackageCopyC2Ev@APTPKG_6.0 1.1~exp9
 _ZN11PackageCopyD0Ev@APTPKG_6.0 0.8.0
 _ZN11PackageCopyD1Ev@APTPKG_6.0 0.8.0
 _ZN11PackageCopyD2Ev@APTPKG_6.0 0.8.0
 _ZN11pkgDepCache10IsDeleteOkERKN8pkgCache11PkgIteratorEbmb@APTPKG_6.0 0.8.0
 _ZN11pkgDepCache10MarkDeleteERKN8pkgCache11PkgIteratorEbmb@APTPKG_6.0 0.8.0
 _ZN11pkgDepCache10StateCache6UpdateEN8pkgCache11PkgIteratorERS1_@APTPKG_6.0 0.8.0
 _ZN11pkgDepCache11ActionGroup7releaseEv@APTPKG_6.0 0.8.0
 _ZN11pkgDepCache11ActionGroupC1ERS_@APTPKG_6.0 0.8.0
 _ZN11pkgDepCache11ActionGroupC2ERS_@APTPKG_6.0 0.8.0
 _ZN11pkgDepCache11ActionGroupD0Ev@APTPKG_6.0 0.8.0
 _ZN11pkgDepCache11ActionGroupD1Ev@APTPKG_6.0 0.8.0
 _ZN11pkgDepCache11ActionGroupD2Ev@APTPKG_6.0 0.8.0
 _ZN11pkgDepCache11IsInstallOkERKN8pkgCache11PkgIteratorEbmb@APTPKG_6.0 0.8.0
 _ZN11pkgDepCache11MarkInstallERKN8pkgCache11PkgIteratorEbmbb@APTPKG_6.0 0.8.0
 _ZN11pkgDepCache12MarkAndSweepERNS_13InRootSetFuncE@APTPKG_6.0 1.1~exp4
 _ZN11pkgDepCache12MarkAndSweepEv@APTPKG_6.0 1.1~exp4
 _ZN11pkgDepCache12MarkRequiredERNS_13InRootSetFuncE@APTPKG_6.0 0.8.0
 _ZN11pkgDepCache12SetReInstallERKN8pkgCache11PkgIteratorEb@APTPKG_6.0 0.8.0
 _ZN11pkgDepCache13BuildGroupOrsERKN8pkgCache11VerIteratorE@APTPKG_6.0 0.8.0
 _ZN11pkgDepCache13readStateFileEP10OpProgress@APTPKG_6.0 0.8.0
 _ZN11pkgDepCache14GetRootSetFuncEv@APTPKG_6.0 0.8.0
 _ZN11pkgDepCache14UpdateVerStateERKN8pkgCache11PkgIteratorE@APTPKG_6.0 1.1~exp9
 _ZN11pkgDepCache14writeStateFileEP10OpProgressb@APTPKG_6.0 0.8.0
 _ZN11pkgDepCache15DependencyStateERKN8pkgCache11DepIteratorE@APTPKG_6.0 1.1~exp9
 _ZN11pkgDepCache16CheckConsistencyEPKc@APTPKG_6.0 2.1.5~
 _ZN11pkgDepCache19GetCandidateVersionERKN8pkgCache11PkgIteratorE@APTPKG_6.0 1.1~exp15
 _ZN11pkgDepCache19MarkFollowsSuggestsEv@APTPKG_6.0 0.8.0
 _ZN11pkgDepCache19SetCandidateReleaseEN8pkgCache11VerIteratorERKNSt7__cxx1112basic_stringIcSt11char_traitsIcESaIcEEE@APTPKG_6.0 0.8.11
 _ZN11pkgDepCache19SetCandidateReleaseEN8pkgCache11VerIteratorERKNSt7__cxx1112basic_stringIcSt11char_traitsIcESaIcEEERNS2_4listISt4pairIS1_S1_ESaISC_EEE@APTPKG_6.0 0.8.11
 _ZN11pkgDepCache19SetCandidateVersionEN8pkgCache11VerIteratorE@APTPKG_6.0 0.8.16~exp6
 _ZN11pkgDepCache21MarkFollowsRecommendsEv@APTPKG_6.0 0.8.0
 _ZN11pkgDepCache24DecreaseActionGroupLevelEv@APTPKG_6.0 2.6.1
 _ZN11pkgDepCache24IncreaseActionGroupLevelEv@APTPKG_6.0 2.6.1
 _ZN11pkgDepCache32IsDeleteOkProtectInstallRequestsERKN8pkgCache11PkgIteratorEbmb@APTPKG_6.0 0.9.9.1
 _ZN11pkgDepCache37IsInstallOkMultiArchSameVersionSyncedERKN8pkgCache11PkgIteratorEbmb@APTPKG_6.0 0.9.9.1
 _ZN11pkgDepCache46IsInstallOkDependenciesSatisfiableByCandidatesERKN8pkgCache11PkgIteratorEbmb@APTPKG_6.0 1.0
 _ZN11pkgDepCache4InitEP10OpProgress@APTPKG_6.0 0.8.0
 _ZN11pkgDepCache5SweepEv@APTPKG_6.0 0.8.0
 _ZN11pkgDepCache6Policy11GetPriorityERKN8pkgCache11PkgIteratorE@APTPKG_6.0 0.8.16~exp6
 _ZN11pkgDepCache6Policy11GetPriorityERKN8pkgCache11VerIteratorEb@APTPKG_6.0 1.1~exp15
 _ZN11pkgDepCache6Policy11GetPriorityERKN8pkgCache15PkgFileIteratorE@APTPKG_6.0 0.8.16~exp6
 _ZN11pkgDepCache6Policy15GetCandidateVerERKN8pkgCache11PkgIteratorE@APTPKG_6.0 0.8.0
 _ZN11pkgDepCache6UpdateEN8pkgCache11DepIteratorE@APTPKG_6.0 0.8.0
 _ZN11pkgDepCache6UpdateEP10OpProgress@APTPKG_6.0 0.8.0
 _ZN11pkgDepCache6UpdateERKN8pkgCache11PkgIteratorE@APTPKG_6.0 0.8.0
 _ZN11pkgDepCache8AddSizesERKN8pkgCache11PkgIteratorEb@APTPKG_6.0 0.8.16~exp6
 _ZN11pkgDepCache8CheckDepERKN8pkgCache11DepIteratorEiRNS0_11PkgIteratorE@APTPKG_6.0 1.1~exp9
 _ZN11pkgDepCache8MarkAutoERKN8pkgCache11PkgIteratorEb@APTPKG_6.0 0.8.0
 _ZN11pkgDepCache8MarkKeepERKN8pkgCache11PkgIteratorEbbm@APTPKG_6.0 0.8.0
 _ZN11pkgDepCache9AddStatesERKN8pkgCache11PkgIteratorEb@APTPKG_6.0 0.8.16~exp6
 _ZN11pkgDepCacheC1EP8pkgCachePNS_6PolicyE@APTPKG_6.0 0.8.0
 _ZN11pkgDepCacheC2EP8pkgCachePNS_6PolicyE@APTPKG_6.0 0.8.0
 _ZN11pkgDepCacheD0Ev@APTPKG_6.0 0.8.0
 _ZN11pkgDepCacheD1Ev@APTPKG_6.0 0.8.0
 _ZN11pkgDepCacheD2Ev@APTPKG_6.0 0.8.0
 _ZN11pkgSimulate2GoEPN3APT8Progress14PackageManagerE@APTPKG_6.0 1.9.11~
 _ZN11pkgSimulate6RemoveEN8pkgCache11PkgIteratorEb@APTPKG_6.0 0.8.0
 _ZN11pkgSimulate7InstallEN8pkgCache11PkgIteratorENSt7__cxx1112basic_stringIcSt11char_traitsIcESaIcEEE@APTPKG_6.0 0.8.0
 _ZN11pkgSimulate9ConfigureEN8pkgCache11PkgIteratorE@APTPKG_6.0 0.8.0
 _ZN11pkgSimulateC1EP11pkgDepCache@APTPKG_6.0 0.8.0
 _ZN11pkgSimulateC2EP11pkgDepCache@APTPKG_6.0 0.8.0
 _ZN11pkgSimulateD0Ev@APTPKG_6.0 0.8.0
 _ZN11pkgSimulateD1Ev@APTPKG_6.0 0.8.0
 _ZN11pkgSimulateD2Ev@APTPKG_6.0 0.8.0
 _ZN12pkgAcqMethod11FetchResult10TakeHashesER6Hashes@APTPKG_6.0 0.8.0
 _ZN12pkgAcqMethod11FetchResultC1Ev@APTPKG_6.0 0.8.0
 _ZN12pkgAcqMethod11FetchResultC2Ev@APTPKG_6.0 0.8.0
 _ZN12pkgAcqMethod11FetchResultD0Ev@APTPKG_6.0 1.1~exp9
 _ZN12pkgAcqMethod11FetchResultD1Ev@APTPKG_6.0 1.1~exp9
 _ZN12pkgAcqMethod11FetchResultD2Ev@APTPKG_6.0 1.1~exp9
 _ZN12pkgAcqMethod11SendMessageERKNSt7__cxx1112basic_stringIcSt11char_traitsIcESaIcEEEOSt13unordered_mapIS5_S5_St4hashIS5_ESt8equal_toIS5_ESaISt4pairIS6_S5_EEE@APTPKG_6.0 1.7.0~alpha3~
 _ZN12pkgAcqMethod13ConfigurationENSt7__cxx1112basic_stringIcSt11char_traitsIcESaIcEEE@APTPKG_6.0 0.8.0
 _ZN12pkgAcqMethod14DropPrivsOrDieEv@APTPKG_6.0 1.1~exp1
 _ZN12pkgAcqMethod3LogEPKcz@APTPKG_6.0 0.8.0
 _ZN12pkgAcqMethod3RunEb@APTPKG_6.0 0.8.0
 _ZN12pkgAcqMethod4FailENSt7__cxx1112basic_stringIcSt11char_traitsIcESaIcEEEb@APTPKG_6.0 0.8.0
 _ZN12pkgAcqMethod4FailEb@APTPKG_6.0 0.8.0
 _ZN12pkgAcqMethod6StatusEPKcz@APTPKG_6.0 0.8.0
 _ZN12pkgAcqMethod7URIDoneERNS_11FetchResultEPS0_@APTPKG_6.0 0.8.0
 _ZN12pkgAcqMethod8RedirectERKNSt7__cxx1112basic_stringIcSt11char_traitsIcESaIcEEE@APTPKG_6.0 0.8.0
 _ZN12pkgAcqMethod8URIStartERNS_11FetchResultE@APTPKG_6.0 0.8.0
 _ZN12pkgAcqMethod9FetchItem5ProxyB5cxx11Ev@APTPKG_6.0 1.6~alpha1~
 _ZN12pkgAcqMethod9FetchItemC1Ev@APTPKG_6.0 1.1~exp9
 _ZN12pkgAcqMethod9FetchItemC2Ev@APTPKG_6.0 1.1~exp9
 _ZN12pkgAcqMethod9FetchItemD0Ev@APTPKG_6.0 1.1~exp9
 _ZN12pkgAcqMethod9FetchItemD1Ev@APTPKG_6.0 1.1~exp9
 _ZN12pkgAcqMethod9FetchItemD2Ev@APTPKG_6.0 1.1~exp9
 _ZN12pkgAcqMethod9MediaFailENSt7__cxx1112basic_stringIcSt11char_traitsIcESaIcEEES5_@APTPKG_6.0 0.8.0
 _ZN12pkgAcqMethodC1EPKcm@APTPKG_6.0 0.8.0
 _ZN12pkgAcqMethodC2EPKcm@APTPKG_6.0 0.8.0
 _ZN12pkgAcqMethodD0Ev@APTPKG_6.0 0.8.0
 _ZN12pkgAcqMethodD1Ev@APTPKG_6.0 0.8.0
 _ZN12pkgAcqMethodD2Ev@APTPKG_6.0 0.8.0
 _ZN12pkgCacheFile11BuildCachesEP10OpProgressb@APTPKG_6.0 0.8.0
 _ZN12pkgCacheFile11BuildPolicyEP10OpProgress@APTPKG_6.0 0.8.0
 _ZN12pkgCacheFile12AddIndexFileEP12pkgIndexFile@APTPKG_6.0 1.2.2
 _ZN12pkgCacheFile12RemoveCachesEv@APTPKG_6.0 0.8.15.7
 _ZN12pkgCacheFile13BuildDepCacheEP10OpProgress@APTPKG_6.0 0.8.0
 _ZN12pkgCacheFile15BuildSourceListEP10OpProgress@APTPKG_6.0 0.8.0
 _ZN12pkgCacheFile19InhibitActionGroupsEb@APTPKG_6.0 2.6.1
 _ZN12pkgCacheFile4OpenEP10OpProgressb@APTPKG_6.0 0.8.0
 _ZN12pkgCacheFile5CloseEv@APTPKG_6.0 0.8.0
 _ZN12pkgCacheFileC1EP11pkgDepCache@APTPKG_6.0 1.1~exp9
 _ZN12pkgCacheFileC1Ev@APTPKG_6.0 0.8.0
 _ZN12pkgCacheFileC2EP11pkgDepCache@APTPKG_6.0 1.1~exp9
 _ZN12pkgCacheFileC2Ev@APTPKG_6.0 0.8.0
 _ZN12pkgCacheFileD0Ev@APTPKG_6.0 0.8.0
 _ZN12pkgCacheFileD1Ev@APTPKG_6.0 0.8.0
 _ZN12pkgCacheFileD2Ev@APTPKG_6.0 0.8.0
 _ZN12pkgDirStream12FinishedFileERNS_4ItemEi@APTPKG_6.0 0.8.0
 _ZN12pkgDirStream4FailERNS_4ItemEi@APTPKG_6.0 0.8.0
 _ZN12pkgDirStream6DoItemERNS_4ItemERi@APTPKG_6.0 0.8.0
 _ZN12pkgIndexFile4Type10GlobalListE@APTPKG_6.0 0.8.0
 _ZN12pkgIndexFile4Type13GlobalListLenE@APTPKG_6.0 0.8.0
 _ZN12pkgIndexFile4Type7GetTypeEPKc@APTPKG_6.0 0.8.0
 _ZN12pkgIndexFile4TypeC1Ev@APTPKG_6.0 0.8.0
 _ZN12pkgIndexFile4TypeC2Ev@APTPKG_6.0 0.8.0
 _ZN12pkgIndexFileC1Eb@APTPKG_6.0 1.1~exp9
 _ZN12pkgIndexFileC2Eb@APTPKG_6.0 1.1~exp9
 _ZN12pkgIndexFileD0Ev@APTPKG_6.0 1.1~exp9
 _ZN12pkgIndexFileD1Ev@APTPKG_6.0 1.1~exp9
 _ZN12pkgIndexFileD2Ev@APTPKG_6.0 1.1~exp9
 _ZN12pkgOrderList10VisitRDepsEMS_FbN8pkgCache11DepIteratorEENS0_11PkgIteratorE@APTPKG_6.0 0.8.0
 _ZN12pkgOrderList11OrderUnpackEPNSt7__cxx1112basic_stringIcSt11char_traitsIcESaIcEEE@APTPKG_6.0 0.8.0
 _ZN12pkgOrderList12DepConfigureEN8pkgCache11DepIteratorE@APTPKG_6.0 0.8.0
 _ZN12pkgOrderList12DepUnPackDepEN8pkgCache11DepIteratorE@APTPKG_6.0 0.8.0
 _ZN12pkgOrderList12DepUnPackPreEN8pkgCache11DepIteratorE@APTPKG_6.0 0.8.0
 _ZN12pkgOrderList13DepUnPackCritEN8pkgCache11DepIteratorE@APTPKG_6.0 0.8.0
 _ZN12pkgOrderList13DepUnPackPreDEN8pkgCache11DepIteratorE@APTPKG_6.0 0.8.0
 _ZN12pkgOrderList13OrderCompareAEPN8pkgCache7PackageES2_@APTPKG_6.0 1.1~exp15
 _ZN12pkgOrderList13OrderCompareBEPN8pkgCache7PackageES2_@APTPKG_6.0 1.1~exp15
 _ZN12pkgOrderList13OrderCriticalEv@APTPKG_6.0 0.8.0
 _ZN12pkgOrderList13VisitProvidesEN8pkgCache11DepIteratorEb@APTPKG_6.0 0.8.0
 _ZN12pkgOrderList14OrderConfigureEv@APTPKG_6.0 0.8.0
 _ZN12pkgOrderList14VisitRProvidesEMS_FbN8pkgCache11DepIteratorEENS0_11VerIteratorE@APTPKG_6.0 0.8.0
 _ZN12pkgOrderList5DoRunEv@APTPKG_6.0 0.8.0
 _ZN12pkgOrderList5ScoreEN8pkgCache11PkgIteratorE@APTPKG_6.0 0.8.0
 _ZN12pkgOrderList7AddLoopEN8pkgCache11DepIteratorE@APTPKG_6.0 0.8.0
 _ZN12pkgOrderList7FileCmpEN8pkgCache11PkgIteratorES1_@APTPKG_6.0 0.8.0
 _ZN12pkgOrderList8CheckDepEN8pkgCache11DepIteratorE@APTPKG_6.0 0.8.0
 _ZN12pkgOrderList9DepRemoveEN8pkgCache11DepIteratorE@APTPKG_6.0 0.8.0
 _ZN12pkgOrderList9IsMissingEN8pkgCache11PkgIteratorE@APTPKG_6.0 0.8.0
 _ZN12pkgOrderList9VisitDepsEMS_FbN8pkgCache11DepIteratorEENS0_11PkgIteratorE@APTPKG_6.0 0.8.0
 _ZN12pkgOrderList9VisitNodeEN8pkgCache11PkgIteratorEPKc@APTPKG_6.0 0.8.15.7
 _ZN12pkgOrderList9WipeFlagsEm@APTPKG_6.0 0.8.0
 _ZN12pkgOrderListC1EP11pkgDepCache@APTPKG_6.0 0.8.0
 _ZN12pkgOrderListC2EP11pkgDepCache@APTPKG_6.0 0.8.0
 _ZN12pkgOrderListD0Ev@APTPKG_6.0 0.8.0
 _ZN12pkgOrderListD1Ev@APTPKG_6.0 0.8.0
 _ZN12pkgOrderListD2Ev@APTPKG_6.0 0.8.0
 _ZN13Configuration11MoveSubTreeEPKcS1_@APTPKG_6.0 1.1~exp15
 _ZN13Configuration18MatchAgainstConfigC1EPKc@APTPKG_6.0 0.8.0
 _ZN13Configuration18MatchAgainstConfigC2EPKc@APTPKG_6.0 0.8.0
 _ZN13Configuration18MatchAgainstConfigD0Ev@APTPKG_6.0 0.8.0
 _ZN13Configuration18MatchAgainstConfigD1Ev@APTPKG_6.0 0.8.0
 _ZN13Configuration18MatchAgainstConfigD2Ev@APTPKG_6.0 0.8.0
 _ZN13Configuration3SetEPKcRKNSt7__cxx1112basic_stringIcSt11char_traitsIcESaIcEEE@APTPKG_6.0 0.8.0
 _ZN13Configuration3SetEPKcRKi@APTPKG_6.0 0.8.0
 _ZN13Configuration4DumpERSo@APTPKG_6.0 0.8.0
 _ZN13Configuration4DumpERSoPKcS2_b@APTPKG_6.0 0.9.3
 _ZN13Configuration5ClearERKNSt7__cxx1112basic_stringIcSt11char_traitsIcESaIcEEE@APTPKG_6.0 0.8.0
 _ZN13Configuration5ClearERKNSt7__cxx1112basic_stringIcSt11char_traitsIcESaIcEEERKi@APTPKG_6.0 0.8.0
 _ZN13Configuration5ClearERKNSt7__cxx1112basic_stringIcSt11char_traitsIcESaIcEEES7_@APTPKG_6.0 0.8.0
 _ZN13Configuration5ClearEv@APTPKG_6.0 0.9.11
 _ZN13Configuration6CndSetEPKcRKNSt7__cxx1112basic_stringIcSt11char_traitsIcESaIcEEE@APTPKG_6.0 0.8.0
 _ZN13Configuration6CndSetEPKci@APTPKG_6.0 0.8.15.3
 _ZN13Configuration6LookupEPKcRKb@APTPKG_6.0 0.8.0
 _ZN13Configuration6LookupEPNS_4ItemEPKcRKmRKb@APTPKG_6.0 0.8.0
 _ZN13ConfigurationC1EPKNS_4ItemE@APTPKG_6.0 0.8.0
 _ZN13ConfigurationC1Ev@APTPKG_6.0 0.8.0
 _ZN13ConfigurationC2EPKNS_4ItemE@APTPKG_6.0 0.8.0
 _ZN13ConfigurationC2Ev@APTPKG_6.0 0.8.0
 _ZN13ConfigurationD1Ev@APTPKG_6.0 0.8.0
 _ZN13ConfigurationD2Ev@APTPKG_6.0 0.8.0
 _ZN13debListParser12ParseDependsEPKcS1_RN3APT10StringViewES4_RjbbbNSt7__cxx1112basic_stringIcSt11char_traitsIcESaIcEEE@APTPKG_6.0 1.9.0~
 _ZN13debListParser12ParseDependsEPKcS1_RNSt7__cxx1112basic_stringIcSt11char_traitsIcESaIcEEES8_RjRKbSB_SB_RKS7_@APTPKG_6.0 1.4~beta3
 _ZN13debListParser15ConvertRelationEPKcRj@APTPKG_6.0 0.8.0
 _ZN13debListParser7GetPrioENSt7__cxx1112basic_stringIcSt11char_traitsIcESaIcEEE@APTPKG_6.0 0.8.0
 _ZN13pkgAcqArchive4DoneERKNSt7__cxx1112basic_stringIcSt11char_traitsIcESaIcEEERK14HashStringListPKN10pkgAcquire12MethodConfigE@APTPKG_6.0 1.1~exp9
 _ZN13pkgAcqArchive6FailedERKNSt7__cxx1112basic_stringIcSt11char_traitsIcESaIcEEEPKN10pkgAcquire12MethodConfigE@APTPKG_6.0 1.1~exp9
 _ZN13pkgAcqArchive8FinishedEv@APTPKG_6.0 0.8.0
 _ZN13pkgAcqArchive9QueueNextEv@APTPKG_6.0 0.8.0
 _ZN13pkgAcqArchiveC1EP10pkgAcquireP13pkgSourceListP10pkgRecordsRKN8pkgCache11VerIteratorERNSt7__cxx1112basic_stringIcSt11char_traitsIcESaIcEEE@APTPKG_6.0 0.8.0
 _ZN13pkgAcqArchiveC2EP10pkgAcquireP13pkgSourceListP10pkgRecordsRKN8pkgCache11VerIteratorERNSt7__cxx1112basic_stringIcSt11char_traitsIcESaIcEEE@APTPKG_6.0 0.8.0
 _ZN13pkgAcqArchiveD0Ev@APTPKG_6.0 0.8.0
 _ZN13pkgAcqArchiveD1Ev@APTPKG_6.0 0.8.0
 _ZN13pkgAcqArchiveD2Ev@APTPKG_6.0 0.8.0
 _ZN13pkgSourceList10ReadAppendERKNSt7__cxx1112basic_stringIcSt11char_traitsIcESaIcEEE@APTPKG_6.0 1.1~exp9
 _ZN13pkgSourceList12ReadMainListEv@APTPKG_6.0 0.8.0
 _ZN13pkgSourceList13ReadSourceDirERKNSt7__cxx1112basic_stringIcSt11char_traitsIcESaIcEEE@APTPKG_6.0 1.1~exp9
 _ZN13pkgSourceList15AddVolatileFileEP12pkgIndexFile@APTPKG_6.0 1.1~exp9
 _ZN13pkgSourceList15AddVolatileFileERKNSt7__cxx1112basic_stringIcSt11char_traitsIcESaIcEEE@APTPKG_6.0 1.1~exp15
 _ZN13pkgSourceList15AddVolatileFileERKNSt7__cxx1112basic_stringIcSt11char_traitsIcESaIcEEEPSt6vectorIS5_SaIS5_EE@APTPKG_6.0 1.3~rc2
 _ZN13pkgSourceList16AddVolatileFilesER11CommandLinePSt6vectorINSt7__cxx1112basic_stringIcSt11char_traitsIcESaIcEEESaIS8_EE@APTPKG_6.0 1.3~rc2
 _ZN13pkgSourceList19GetLastModifiedTimeEv@APTPKG_6.0 0.8.15.6
 _ZN13pkgSourceList4ReadERKNSt7__cxx1112basic_stringIcSt11char_traitsIcESaIcEEE@APTPKG_6.0 1.1~exp9
 _ZN13pkgSourceList4Type10GlobalListE@APTPKG_6.0 0.8.0
 _ZN13pkgSourceList4Type11ParseStanzaERSt6vectorIP9metaIndexSaIS3_EER13pkgTagSectionjR6FileFd@APTPKG_6.0 1.1~exp9
 _ZN13pkgSourceList4Type13GlobalListLenE@APTPKG_6.0 0.8.0
 _ZN13pkgSourceList4Type7GetTypeEPKc@APTPKG_6.0 0.8.0
 _ZN13pkgSourceList4TypeC1EPKcS2_@APTPKG_6.0 1.1~exp9
 _ZN13pkgSourceList4TypeC2EPKcS2_@APTPKG_6.0 1.1~exp9
 _ZN13pkgSourceList4TypeD0Ev@APTPKG_6.0 1.1~exp9
 _ZN13pkgSourceList4TypeD1Ev@APTPKG_6.0 1.1~exp9
 _ZN13pkgSourceList4TypeD2Ev@APTPKG_6.0 1.1~exp9
 _ZN13pkgSourceList5ResetEv@APTPKG_6.0 0.8.0
 _ZN13pkgSourceListC1Ev@APTPKG_6.0 0.8.0
 _ZN13pkgSourceListC2Ev@APTPKG_6.0 0.8.0
 _ZN13pkgSourceListD0Ev@APTPKG_6.0 0.8.0
 _ZN13pkgSourceListD1Ev@APTPKG_6.0 0.8.0
 _ZN13pkgSourceListD2Ev@APTPKG_6.0 0.8.0
 _ZN13pkgSrcRecords4FindEPKcRKb@APTPKG_6.0 0.8.0
 _ZN13pkgSrcRecords4StepEv@APTPKG_6.0 1.0.4
 _ZN13pkgSrcRecords6Parser12BuildDepTypeERKh@APTPKG_6.0 0.8.0
 _ZN13pkgSrcRecords6ParserC1EPK12pkgIndexFile@APTPKG_6.0 1.1~exp9
 _ZN13pkgSrcRecords6ParserC2EPK12pkgIndexFile@APTPKG_6.0 1.1~exp9
 _ZN13pkgSrcRecords6ParserD0Ev@APTPKG_6.0 1.1~exp9
 _ZN13pkgSrcRecords6ParserD1Ev@APTPKG_6.0 1.1~exp9
 _ZN13pkgSrcRecords6ParserD2Ev@APTPKG_6.0 1.1~exp9
 _ZN13pkgSrcRecords7RestartEv@APTPKG_6.0 0.8.0
 _ZN13pkgSrcRecordsC1ER13pkgSourceList@APTPKG_6.0 0.8.0
 _ZN13pkgSrcRecordsC2ER13pkgSourceList@APTPKG_6.0 0.8.0
 _ZN13pkgSrcRecordsD0Ev@APTPKG_6.0 0.8.0
 _ZN13pkgSrcRecordsD1Ev@APTPKG_6.0 0.8.0
 _ZN13pkgSrcRecordsD2Ev@APTPKG_6.0 0.8.0
 _ZN13pkgTagSection10TrimRecordEbRPKc@APTPKG_6.0 0.8.0
 _ZN13pkgTagSection3Tag6RemoveERKNSt7__cxx1112basic_stringIcSt11char_traitsIcESaIcEEE@APTPKG_6.0 1.1~exp9
 _ZN13pkgTagSection3Tag6RenameERKNSt7__cxx1112basic_stringIcSt11char_traitsIcESaIcEEES8_@APTPKG_6.0 1.1~exp9
 _ZN13pkgTagSection3Tag7RewriteERKNSt7__cxx1112basic_stringIcSt11char_traitsIcESaIcEEES8_@APTPKG_6.0 1.1~exp9
 _ZN13pkgTagSection4ScanEPKcmb@APTPKG_6.0 1.1~exp1
 _ZN13pkgTagSection4TrimEv@APTPKG_6.0 0.8.0
 _ZN13pkgTagSection8FindFlagERhhPKcS2_@APTPKG_6.0 1.1~exp9
 _ZN13pkgTagSection8FindFlagERmmPKcS2_@APTPKG_6.0 0.8.11
 _ZN13pkgTagSectionC1Ev@APTPKG_6.0 0.9.11
 _ZN13pkgTagSectionC2Ev@APTPKG_6.0 0.9.11
 _ZN13pkgTagSectionD0Ev@APTPKG_6.0 0.8.16~exp6
 _ZN13pkgTagSectionD1Ev@APTPKG_6.0 0.8.16~exp6
 _ZN13pkgTagSectionD2Ev@APTPKG_6.0 0.8.16~exp6
 _ZN14HashStringList8FileSizeEy@APTPKG_6.0 1.1~exp9
 _ZN14HashStringList9push_backERK10HashString@APTPKG_6.0 1.0.9.4
 _ZN14HashStringList9supportedEPKc@APTPKG_6.0 1.0.9.4
 _ZN14OpTextProgress4DoneEv@APTPKG_6.0 0.8.0
 _ZN14OpTextProgress5WriteEPKc@APTPKG_6.0 0.8.0
 _ZN14OpTextProgress6UpdateEv@APTPKG_6.0 0.8.0
 _ZN14OpTextProgressC1ER13Configuration@APTPKG_6.0 0.8.0
 _ZN14OpTextProgressC2ER13Configuration@APTPKG_6.0 0.8.0
 _ZN14pkgCdromStatusC1Ev@APTPKG_6.0 1.1~exp9
 _ZN14pkgCdromStatusC2Ev@APTPKG_6.0 1.1~exp9
 _ZN14pkgCdromStatusD0Ev@APTPKG_6.0 1.1~exp9
 _ZN14pkgCdromStatusD1Ev@APTPKG_6.0 1.1~exp9
 _ZN14pkgCdromStatusD2Ev@APTPKG_6.0 1.1~exp9
 _ZN15debDscFileIndexC1ERKNSt7__cxx1112basic_stringIcSt11char_traitsIcESaIcEEE@APTPKG_6.0 1.1~exp9
 _ZN15debDscFileIndexC2ERKNSt7__cxx1112basic_stringIcSt11char_traitsIcESaIcEEE@APTPKG_6.0 1.1~exp9
 _ZN15debDscFileIndexD0Ev@APTPKG_6.0 1.1~exp9
 _ZN15debDscFileIndexD1Ev@APTPKG_6.0 1.1~exp9
 _ZN15debDscFileIndexD2Ev@APTPKG_6.0 1.1~exp9
 _ZN15pkgAcqChangelog11URITemplateB5cxx11ERKN8pkgCache15RlsFileIteratorE@APTPKG_6.0 1.1~exp9
 _ZN15pkgAcqChangelog3URIB5cxx11ERKN8pkgCache11VerIteratorE@APTPKG_6.0 1.1~exp9
 _ZN15pkgAcqChangelog3URIB5cxx11ERKN8pkgCache15RlsFileIteratorEPKcS5_S5_@APTPKG_6.0 1.1~exp9
 _ZN15pkgAcqChangelog3URIERKNSt7__cxx1112basic_stringIcSt11char_traitsIcESaIcEEEPKcS9_S9_@APTPKG_6.0 1.1~exp9
 _ZN15pkgAcqChangelog4DoneERKNSt7__cxx1112basic_stringIcSt11char_traitsIcESaIcEEERK14HashStringListPKN10pkgAcquire12MethodConfigE@APTPKG_6.0 1.1~exp9
 _ZN15pkgAcqChangelog6FailedERKNSt7__cxx1112basic_stringIcSt11char_traitsIcESaIcEEEPKN10pkgAcquire12MethodConfigE@APTPKG_6.0 1.1~exp9
 _ZN15pkgAcqChangelogC1EP10pkgAcquireRKN8pkgCache11VerIteratorERKNSt7__cxx1112basic_stringIcSt11char_traitsIcESaIcEEESD_@APTPKG_6.0 1.1~exp9
 _ZN15pkgAcqChangelogC1EP10pkgAcquireRKN8pkgCache15RlsFileIteratorEPKcS7_S7_RKNSt7__cxx1112basic_stringIcSt11char_traitsIcESaIcEEESF_@APTPKG_6.0 1.1~exp9
 _ZN15pkgAcqChangelogC1EP10pkgAcquireRKNSt7__cxx1112basic_stringIcSt11char_traitsIcESaIcEEEPKcSB_S9_S9_@APTPKG_6.0 1.1~exp9
 _ZN15pkgAcqChangelogC2EP10pkgAcquireRKN8pkgCache11VerIteratorERKNSt7__cxx1112basic_stringIcSt11char_traitsIcESaIcEEESD_@APTPKG_6.0 1.1~exp9
 _ZN15pkgAcqChangelogC2EP10pkgAcquireRKN8pkgCache15RlsFileIteratorEPKcS7_S7_RKNSt7__cxx1112basic_stringIcSt11char_traitsIcESaIcEEESF_@APTPKG_6.0 1.1~exp9
 _ZN15pkgAcqChangelogC2EP10pkgAcquireRKNSt7__cxx1112basic_stringIcSt11char_traitsIcESaIcEEEPKcSB_S9_S9_@APTPKG_6.0 1.1~exp9
 _ZN15pkgAcqChangelogD0Ev@APTPKG_6.0 1.1~exp9
 _ZN15pkgAcqChangelogD1Ev@APTPKG_6.0 1.1~exp9
 _ZN15pkgAcqChangelogD2Ev@APTPKG_6.0 1.1~exp9
 _ZN15pkgVersionMatch14VersionMatchesEN8pkgCache11VerIteratorE@APTPKG_6.0 1.1~exp9
 _ZN15pkgVersionMatch17ExpressionMatchesEPKcS1_@APTPKG_6.0 0.8.0
 _ZN15pkgVersionMatch17ExpressionMatchesERKNSt7__cxx1112basic_stringIcSt11char_traitsIcESaIcEEEPKc@APTPKG_6.0 0.8.0
 _ZN15pkgVersionMatch4FindEN8pkgCache11PkgIteratorE@APTPKG_6.0 0.8.0
 _ZN15pkgVersionMatch8MatchVerEPKcNSt7__cxx1112basic_stringIcSt11char_traitsIcESaIcEEEb@APTPKG_6.0 0.8.0
 _ZN15pkgVersionMatch9FileMatchEN8pkgCache15PkgFileIteratorE@APTPKG_6.0 0.8.0
 _ZN15pkgVersionMatch9FileMatchERKN8pkgCache15RlsFileIteratorE@APTPKG_6.0 2.6.1
 _ZN15pkgVersionMatchC1ENSt7__cxx1112basic_stringIcSt11char_traitsIcESaIcEEENS_9MatchTypeE@APTPKG_6.0 0.8.0
 _ZN15pkgVersionMatchC2ENSt7__cxx1112basic_stringIcSt11char_traitsIcESaIcEEENS_9MatchTypeE@APTPKG_6.0 0.8.0
 _ZN16TranslationsCopy16CopyTranslationsENSt7__cxx1112basic_stringIcSt11char_traitsIcESaIcEEES5_RSt6vectorIS5_SaIS5_EEP14pkgCdromStatus@APTPKG_6.0 0.8.0
 _ZN16TranslationsCopyC1Ev@APTPKG_6.0 1.1~exp9
 _ZN16TranslationsCopyC2Ev@APTPKG_6.0 1.1~exp9
 _ZN16TranslationsCopyD0Ev@APTPKG_6.0 1.1~exp9
 _ZN16TranslationsCopyD1Ev@APTPKG_6.0 1.1~exp9
 _ZN16TranslationsCopyD2Ev@APTPKG_6.0 1.1~exp9
 _ZN16pkgAcquireStatus18ReleaseInfoChangesEPK9metaIndexS2_OSt6vectorINS_17ReleaseInfoChangeESaIS4_EE@APTPKG_6.0 1.5~beta2~
 _ZN16pkgAcquireStatus4StopEv@APTPKG_6.0 0.8.0
 _ZN16pkgAcquireStatus5PulseEP10pkgAcquire@APTPKG_6.0 0.8.0
 _ZN16pkgAcquireStatus5StartEv@APTPKG_6.0 0.8.0
 _ZN16pkgAcquireStatus7FetchedEyy@APTPKG_6.0 0.8.16~exp6
 _ZN16pkgAcquireStatusC1Ev@APTPKG_6.0 0.8.0
 _ZN16pkgAcquireStatusC2Ev@APTPKG_6.0 0.8.0
 _ZN16pkgAcquireStatusD0Ev@APTPKG_6.0 0.8.0
 _ZN16pkgAcquireStatusD1Ev@APTPKG_6.0 0.8.0
 _ZN16pkgAcquireStatusD2Ev@APTPKG_6.0 0.8.0
 _ZN17pkgArchiveCleaner2GoENSt7__cxx1112basic_stringIcSt11char_traitsIcESaIcEEER8pkgCache@APTPKG_6.0 0.8.0
 _ZN17pkgArchiveCleanerC1Ev@APTPKG_6.0 1.1~exp9
 _ZN17pkgArchiveCleanerC2Ev@APTPKG_6.0 1.1~exp9
 _ZN17pkgArchiveCleanerD0Ev@APTPKG_6.0 0.8.0
 _ZN17pkgArchiveCleanerD1Ev@APTPKG_6.0 0.8.0
 _ZN17pkgArchiveCleanerD2Ev@APTPKG_6.0 0.8.0
 _ZN17pkgCacheGenerator15MakeStatusCacheER13pkgSourceListP10OpProgressPP4MMapb@APTPKG_6.0 0.8.0
 _ZN17pkgCacheGenerator19MakeOnlyStatusCacheEP10OpProgressPP11DynamicMMap@APTPKG_6.0 0.8.0
 _ZN17pkgPackageManager10FixMissingEv@APTPKG_6.0 0.8.0
 _ZN17pkgPackageManager10SigINTStopE@APTPKG_6.0 0.8.16~exp14
 _ZN17pkgPackageManager11EarlyRemoveEN8pkgCache11PkgIteratorEPKNS0_11DepIteratorE@APTPKG_6.0 1.0.4
 _ZN17pkgPackageManager11GetArchivesEP10pkgAcquireP13pkgSourceListP10pkgRecords@APTPKG_6.0 0.8.0
 _ZN17pkgPackageManager11SmartRemoveEN8pkgCache11PkgIteratorE@APTPKG_6.0 0.8.0
 _ZN17pkgPackageManager11SmartUnPackEN8pkgCache11PkgIteratorEbi@APTPKG_6.0 0.8.16~exp14
 _ZN17pkgPackageManager12CheckRBreaksERKN8pkgCache11PkgIteratorENS0_11DepIteratorEPKc@APTPKG_6.0 1.1~exp11
 _ZN17pkgPackageManager12ConfigureAllEv@APTPKG_6.0 0.8.0
 _ZN17pkgPackageManager12ImmediateAddEN8pkgCache11PkgIteratorEbRKj@APTPKG_6.0 0.8.0
 _ZN17pkgPackageManager12OrderInstallEv@APTPKG_6.0 0.8.0
 _ZN17pkgPackageManager13DepAlwaysTrueEN8pkgCache11DepIteratorE@APTPKG_6.0 0.8.0
 _ZN17pkgPackageManager14SmartConfigureEN8pkgCache11PkgIteratorEi@APTPKG_6.0 0.8.16~exp14
 _ZN17pkgPackageManager15CheckRConflictsEN8pkgCache11PkgIteratorENS0_11DepIteratorEPKc@APTPKG_6.0 0.8.0
 _ZN17pkgPackageManager15CreateOrderListEv@APTPKG_6.0 0.8.0
 _ZN17pkgPackageManager17DoInstallPostForkEPN3APT8Progress14PackageManagerE@APTPKG_6.0 1.1~exp1
 _ZN17pkgPackageManager9DoInstallEPN3APT8Progress14PackageManagerE@APTPKG_6.0 1.1~exp1
 _ZN17pkgPackageManagerC1EP11pkgDepCache@APTPKG_6.0 0.8.0
 _ZN17pkgPackageManagerC2EP11pkgDepCache@APTPKG_6.0 0.8.0
 _ZN17pkgPackageManagerD0Ev@APTPKG_6.0 0.8.0
 _ZN17pkgPackageManagerD1Ev@APTPKG_6.0 0.8.0
 _ZN17pkgPackageManagerD2Ev@APTPKG_6.0 0.8.0
 _ZN18pkgDebianIndexFile5MergeER17pkgCacheGeneratorP10OpProgress@APTPKG_6.0 1.9.11~
 _ZN18pkgDebianIndexFileC1Eb@APTPKG_6.0 1.1~exp9
 _ZN18pkgDebianIndexFileC2Eb@APTPKG_6.0 1.1~exp9
 _ZN18pkgDebianIndexFileD0Ev@APTPKG_6.0 1.1~exp9
 _ZN18pkgDebianIndexFileD1Ev@APTPKG_6.0 1.1~exp9
 _ZN18pkgDebianIndexFileD2Ev@APTPKG_6.0 1.1~exp9
 _ZN18pkgProblemResolver13ResolveByKeepEP10OpProgress@APTPKG_6.0 1.1~exp4
 _ZN18pkgProblemResolver21InstOrNewPolicyBrokenEN8pkgCache11PkgIteratorE@APTPKG_6.0 0.8.15.3
 _ZN18pkgProblemResolver7ResolveEbP10OpProgress@APTPKG_6.0 1.1~exp4
 _ZN18pkgProblemResolverC1EP11pkgDepCache@APTPKG_6.0 0.8.0
 _ZN18pkgProblemResolverC2EP11pkgDepCache@APTPKG_6.0 0.8.0
 _ZN18pkgProblemResolverD0Ev@APTPKG_6.0 0.8.0
 _ZN18pkgProblemResolverD1Ev@APTPKG_6.0 0.8.0
 _ZN18pkgProblemResolverD2Ev@APTPKG_6.0 0.8.0
 _ZN19debVersioningSystem11CmpFragmentEPKcS1_S1_S1_@APTPKG_6.0 0.8.0
 _ZN19debVersioningSystem12DoCmpVersionEPKcS1_S1_S1_@APTPKG_6.0 0.8.0
 _ZN19debVersioningSystem15UpstreamVersionB5cxx11EPKc@APTPKG_6.0 0.8.0
 _ZN19debVersioningSystem8CheckDepEPKciS1_@APTPKG_6.0 0.8.0
 _ZN19debVersioningSystemC1Ev@APTPKG_6.0 0.8.0
 _ZN19debVersioningSystemC2Ev@APTPKG_6.0 0.8.0
 _ZN19pkgUdevCdromDevices16ScanForRemovableEb@APTPKG_6.0 0.8.12
 _ZN19pkgUdevCdromDevices4ScanEv@APTPKG_6.0 0.8.0
 _ZN19pkgUdevCdromDevicesC1Ev@APTPKG_6.0 0.8.0
 _ZN19pkgUdevCdromDevicesC2Ev@APTPKG_6.0 0.8.0
 _ZN19pkgUdevCdromDevicesD0Ev@APTPKG_6.0 0.8.0
 _ZN19pkgUdevCdromDevicesD1Ev@APTPKG_6.0 0.8.0
 _ZN19pkgUdevCdromDevicesD2Ev@APTPKG_6.0 0.8.0
 _ZN19pkgVersioningSystem10GlobalListE@APTPKG_6.0 0.8.0
 _ZN19pkgVersioningSystem13GlobalListLenE@APTPKG_6.0 0.8.0
 _ZN19pkgVersioningSystem5GetVSEPKc@APTPKG_6.0 0.8.0
 _ZN19pkgVersioningSystemC1Ev@APTPKG_6.0 0.8.0
 _ZN19pkgVersioningSystemC2Ev@APTPKG_6.0 0.8.0
 _ZN19pkgVersioningSystemD0Ev@APTPKG_6.0 1.1~exp9
 _ZN19pkgVersioningSystemD1Ev@APTPKG_6.0 1.1~exp9
 _ZN19pkgVersioningSystemD2Ev@APTPKG_6.0 1.1~exp9
 _ZN21debStringPackageIndexC1ERKNSt7__cxx1112basic_stringIcSt11char_traitsIcESaIcEEE@APTPKG_6.0 1.2.2
 _ZN21debStringPackageIndexC2ERKNSt7__cxx1112basic_stringIcSt11char_traitsIcESaIcEEE@APTPKG_6.0 1.2.2
 _ZN21debStringPackageIndexD0Ev@APTPKG_6.0 1.2.2
 _ZN21debStringPackageIndexD1Ev@APTPKG_6.0 1.2.2
 _ZN21debStringPackageIndexD2Ev@APTPKG_6.0 1.2.2
 _ZN22pkgDebianIndexRealFile12OpenListFileER6FileFdRKNSt7__cxx1112basic_stringIcSt11char_traitsIcESaIcEEE@APTPKG_6.0 1.1~exp9
 _ZN22pkgDebianIndexRealFileC1ERKNSt7__cxx1112basic_stringIcSt11char_traitsIcESaIcEEEb@APTPKG_6.0 1.1~exp9
 _ZN22pkgDebianIndexRealFileC2ERKNSt7__cxx1112basic_stringIcSt11char_traitsIcESaIcEEEb@APTPKG_6.0 1.1~exp9
 _ZN22pkgDebianIndexRealFileD0Ev@APTPKG_6.0 1.1~exp9
 _ZN22pkgDebianIndexRealFileD1Ev@APTPKG_6.0 1.1~exp9
 _ZN22pkgDebianIndexRealFileD2Ev@APTPKG_6.0 1.1~exp9
 _ZN24pkgDebianIndexTargetFile12OpenListFileER6FileFdRKNSt7__cxx1112basic_stringIcSt11char_traitsIcESaIcEEE@APTPKG_6.0 1.1~exp9
 _ZN24pkgDebianIndexTargetFileC1ERK11IndexTargetb@APTPKG_6.0 1.1~exp9
 _ZN24pkgDebianIndexTargetFileC2ERK11IndexTargetb@APTPKG_6.0 1.1~exp9
 _ZN24pkgDebianIndexTargetFileD0Ev@APTPKG_6.0 1.1~exp9
 _ZN24pkgDebianIndexTargetFileD1Ev@APTPKG_6.0 1.1~exp9
 _ZN24pkgDebianIndexTargetFileD2Ev@APTPKG_6.0 1.1~exp9
 _ZN3APT11CacheFilter10ANDMatcher3ANDEPNS0_7MatcherE@APTPKG_6.0 1.1~exp4
 _ZN3APT11CacheFilter10ANDMatcherC1EPNS0_7MatcherE@APTPKG_6.0 1.1~exp4
 _ZN3APT11CacheFilter10ANDMatcherC1EPNS0_7MatcherES3_@APTPKG_6.0 1.1~exp4
 _ZN3APT11CacheFilter10ANDMatcherC1EPNS0_7MatcherES3_S3_@APTPKG_6.0 1.1~exp4
 _ZN3APT11CacheFilter10ANDMatcherC1EPNS0_7MatcherES3_S3_S3_@APTPKG_6.0 1.1~exp4
 _ZN3APT11CacheFilter10ANDMatcherC1EPNS0_7MatcherES3_S3_S3_S3_@APTPKG_6.0 1.1~exp4
 _ZN3APT11CacheFilter10ANDMatcherC1Ev@APTPKG_6.0 1.1~exp4
 _ZN3APT11CacheFilter10ANDMatcherC2EPNS0_7MatcherE@APTPKG_6.0 1.1~exp4
 _ZN3APT11CacheFilter10ANDMatcherC2EPNS0_7MatcherES3_@APTPKG_6.0 1.1~exp4
 _ZN3APT11CacheFilter10ANDMatcherC2EPNS0_7MatcherES3_S3_@APTPKG_6.0 1.1~exp4
 _ZN3APT11CacheFilter10ANDMatcherC2EPNS0_7MatcherES3_S3_S3_@APTPKG_6.0 1.1~exp4
 _ZN3APT11CacheFilter10ANDMatcherC2EPNS0_7MatcherES3_S3_S3_S3_@APTPKG_6.0 1.1~exp4
 _ZN3APT11CacheFilter10ANDMatcherC2Ev@APTPKG_6.0 1.1~exp4
 _ZN3APT11CacheFilter10ANDMatcherD0Ev@APTPKG_6.0 1.1~exp4
 _ZN3APT11CacheFilter10ANDMatcherD1Ev@APTPKG_6.0 1.1~exp4
 _ZN3APT11CacheFilter10ANDMatcherD2Ev@APTPKG_6.0 1.1~exp4
 _ZN3APT11CacheFilter10ANDMatcherclERKN8pkgCache11GrpIteratorE@APTPKG_6.0 1.1~exp4
 _ZN3APT11CacheFilter10ANDMatcherclERKN8pkgCache11PkgIteratorE@APTPKG_6.0 1.1~exp4
 _ZN3APT11CacheFilter10ANDMatcherclERKN8pkgCache11VerIteratorE@APTPKG_6.0 1.1~exp4
 _ZN3APT11CacheFilter10NOTMatcherC1EPNS0_7MatcherE@APTPKG_6.0 1.1~exp4
 _ZN3APT11CacheFilter10NOTMatcherC2EPNS0_7MatcherE@APTPKG_6.0 1.1~exp4
 _ZN3APT11CacheFilter10NOTMatcherD0Ev@APTPKG_6.0 1.1~exp4
 _ZN3APT11CacheFilter10NOTMatcherD1Ev@APTPKG_6.0 1.1~exp4
 _ZN3APT11CacheFilter10NOTMatcherD2Ev@APTPKG_6.0 1.1~exp4
 _ZN3APT11CacheFilter10NOTMatcherclERKN8pkgCache11GrpIteratorE@APTPKG_6.0 1.1~exp4
 _ZN3APT11CacheFilter10NOTMatcherclERKN8pkgCache11PkgIteratorE@APTPKG_6.0 1.1~exp4
 _ZN3APT11CacheFilter10NOTMatcherclERKN8pkgCache11VerIteratorE@APTPKG_6.0 1.1~exp4
 _ZN3APT11CacheFilter11TrueMatcherclERKN8pkgCache11GrpIteratorE@APTPKG_6.0 1.1~exp4
 _ZN3APT11CacheFilter11TrueMatcherclERKN8pkgCache11PkgIteratorE@APTPKG_6.0 1.1~exp4
 _ZN3APT11CacheFilter11TrueMatcherclERKN8pkgCache11VerIteratorE@APTPKG_6.0 1.1~exp4
 _ZN3APT11CacheFilter12FalseMatcherclERKN8pkgCache11GrpIteratorE@APTPKG_6.0 1.1~exp4
 _ZN3APT11CacheFilter12FalseMatcherclERKN8pkgCache11PkgIteratorE@APTPKG_6.0 1.1~exp4
 _ZN3APT11CacheFilter12FalseMatcherclERKN8pkgCache11VerIteratorE@APTPKG_6.0 1.1~exp4
 _ZN3APT11CacheFilter12ParsePatternENS_10StringViewEP12pkgCacheFile@APTPKG_6.0 1.9.11~
 _ZN3APT11CacheFilter14PackageMatcherD0Ev@APTPKG_6.0 1.1~exp4
 _ZN3APT11CacheFilter14PackageMatcherD1Ev@APTPKG_6.0 1.1~exp4
 _ZN3APT11CacheFilter14PackageMatcherD2Ev@APTPKG_6.0 1.1~exp4
 _ZN3APT11CacheFilter19PackageIsNewInstallC1EP12pkgCacheFile@APTPKG_6.0 1.1~exp4
 _ZN3APT11CacheFilter19PackageIsNewInstallC2EP12pkgCacheFile@APTPKG_6.0 1.1~exp4
 _ZN3APT11CacheFilter19PackageIsNewInstallD0Ev@APTPKG_6.0 1.1~exp4
 _ZN3APT11CacheFilter19PackageIsNewInstallD1Ev@APTPKG_6.0 1.1~exp4
 _ZN3APT11CacheFilter19PackageIsNewInstallD2Ev@APTPKG_6.0 1.1~exp4
 _ZN3APT11CacheFilter19PackageIsNewInstallclERKN8pkgCache11PkgIteratorE@APTPKG_6.0 1.1~exp4
 _ZN3APT11CacheFilter23PackageNameMatchesRegExC1ERKNSt7__cxx1112basic_stringIcSt11char_traitsIcESaIcEEE@APTPKG_6.0 0.8.0
 _ZN3APT11CacheFilter23PackageNameMatchesRegExC2ERKNSt7__cxx1112basic_stringIcSt11char_traitsIcESaIcEEE@APTPKG_6.0 0.8.0
 _ZN3APT11CacheFilter23PackageNameMatchesRegExD0Ev@APTPKG_6.0 0.8.0
 _ZN3APT11CacheFilter23PackageNameMatchesRegExD1Ev@APTPKG_6.0 0.8.0
 _ZN3APT11CacheFilter23PackageNameMatchesRegExD2Ev@APTPKG_6.0 0.8.0
 _ZN3APT11CacheFilter23PackageNameMatchesRegExclERKN8pkgCache11GrpIteratorE@APTPKG_6.0 0.8.0
 _ZN3APT11CacheFilter23PackageNameMatchesRegExclERKN8pkgCache11PkgIteratorE@APTPKG_6.0 0.8.0
 _ZN3APT11CacheFilter25PackageNameMatchesFnmatchC1ERKNSt7__cxx1112basic_stringIcSt11char_traitsIcESaIcEEE@APTPKG_6.0 1.1~exp4
 _ZN3APT11CacheFilter25PackageNameMatchesFnmatchC2ERKNSt7__cxx1112basic_stringIcSt11char_traitsIcESaIcEEE@APTPKG_6.0 1.1~exp4
 _ZN3APT11CacheFilter25PackageNameMatchesFnmatchclERKN8pkgCache11GrpIteratorE@APTPKG_6.0 0.9.11
 _ZN3APT11CacheFilter25PackageNameMatchesFnmatchclERKN8pkgCache11PkgIteratorE@APTPKG_6.0 0.9.11
 _ZN3APT11CacheFilter39PackageArchitectureMatchesSpecificationC1ERKNSt7__cxx1112basic_stringIcSt11char_traitsIcESaIcEEEb@APTPKG_6.0 0.9.7
 _ZN3APT11CacheFilter39PackageArchitectureMatchesSpecificationC2ERKNSt7__cxx1112basic_stringIcSt11char_traitsIcESaIcEEEb@APTPKG_6.0 0.9.7
 _ZN3APT11CacheFilter39PackageArchitectureMatchesSpecificationD0Ev@APTPKG_6.0 0.9.7
 _ZN3APT11CacheFilter39PackageArchitectureMatchesSpecificationD1Ev@APTPKG_6.0 0.9.7
 _ZN3APT11CacheFilter39PackageArchitectureMatchesSpecificationD2Ev@APTPKG_6.0 0.9.7
 _ZN3APT11CacheFilter39PackageArchitectureMatchesSpecificationclERKN8pkgCache11PkgIteratorE@APTPKG_6.0 0.9.7
 _ZN3APT11CacheFilter39PackageArchitectureMatchesSpecificationclERKPKc@APTPKG_6.0 0.9.7
 _ZN3APT11CacheFilter7MatcherD0Ev@APTPKG_6.0 1.1~exp4
 _ZN3APT11CacheFilter7MatcherD1Ev@APTPKG_6.0 1.1~exp4
 _ZN3APT11CacheFilter7MatcherD2Ev@APTPKG_6.0 1.1~exp4
 _ZN3APT11CacheFilter9ORMatcher2OREPNS0_7MatcherE@APTPKG_6.0 1.1~exp4
 _ZN3APT11CacheFilter9ORMatcherC1EPNS0_7MatcherE@APTPKG_6.0 1.1~exp4
 _ZN3APT11CacheFilter9ORMatcherC1EPNS0_7MatcherES3_@APTPKG_6.0 1.1~exp4
 _ZN3APT11CacheFilter9ORMatcherC1EPNS0_7MatcherES3_S3_@APTPKG_6.0 1.1~exp4
 _ZN3APT11CacheFilter9ORMatcherC1EPNS0_7MatcherES3_S3_S3_@APTPKG_6.0 1.1~exp4
 _ZN3APT11CacheFilter9ORMatcherC1EPNS0_7MatcherES3_S3_S3_S3_@APTPKG_6.0 1.1~exp4
 _ZN3APT11CacheFilter9ORMatcherC1Ev@APTPKG_6.0 1.1~exp4
 _ZN3APT11CacheFilter9ORMatcherC2EPNS0_7MatcherE@APTPKG_6.0 1.1~exp4
 _ZN3APT11CacheFilter9ORMatcherC2EPNS0_7MatcherES3_@APTPKG_6.0 1.1~exp4
 _ZN3APT11CacheFilter9ORMatcherC2EPNS0_7MatcherES3_S3_@APTPKG_6.0 1.1~exp4
 _ZN3APT11CacheFilter9ORMatcherC2EPNS0_7MatcherES3_S3_S3_@APTPKG_6.0 1.1~exp4
 _ZN3APT11CacheFilter9ORMatcherC2EPNS0_7MatcherES3_S3_S3_S3_@APTPKG_6.0 1.1~exp4
 _ZN3APT11CacheFilter9ORMatcherC2Ev@APTPKG_6.0 1.1~exp4
 _ZN3APT11CacheFilter9ORMatcherD0Ev@APTPKG_6.0 1.1~exp4
 _ZN3APT11CacheFilter9ORMatcherD1Ev@APTPKG_6.0 1.1~exp4
 _ZN3APT11CacheFilter9ORMatcherD2Ev@APTPKG_6.0 1.1~exp4
 _ZN3APT11CacheFilter9ORMatcherclERKN8pkgCache11GrpIteratorE@APTPKG_6.0 1.1~exp4
 _ZN3APT11CacheFilter9ORMatcherclERKN8pkgCache11PkgIteratorE@APTPKG_6.0 1.1~exp4
 _ZN3APT11CacheFilter9ORMatcherclERKN8pkgCache11VerIteratorE@APTPKG_6.0 1.1~exp4
 _ZN3APT12StateChanges4HoldERKN8pkgCache11VerIteratorE@APTPKG_6.0 1.1~exp15
 _ZN3APT12StateChanges4HoldEv@APTPKG_6.0 1.1~exp15
 _ZN3APT12StateChanges4SaveEb@APTPKG_6.0 1.1~exp15
 _ZN3APT12StateChanges5ErrorEv@APTPKG_6.0 1.1~exp15
 _ZN3APT12StateChanges5PurgeERKN8pkgCache11VerIteratorE@APTPKG_6.0 1.1~exp15
 _ZN3APT12StateChanges5PurgeEv@APTPKG_6.0 1.1~exp15
 _ZN3APT12StateChanges5clearEv@APTPKG_6.0 1.1~exp15
 _ZN3APT12StateChanges6RemoveERKN8pkgCache11VerIteratorE@APTPKG_6.0 1.1~exp15
 _ZN3APT12StateChanges6RemoveEv@APTPKG_6.0 1.1~exp15
 _ZN3APT12StateChanges6UnholdERKN8pkgCache11VerIteratorE@APTPKG_6.0 1.1~exp15
 _ZN3APT12StateChanges6UnholdEv@APTPKG_6.0 1.1~exp15
 _ZN3APT12StateChanges7InstallERKN8pkgCache11VerIteratorE@APTPKG_6.0 1.1~exp15
 _ZN3APT12StateChanges7InstallEv@APTPKG_6.0 1.1~exp15
 _ZN3APT12StateChangesC1EOS0_@APTPKG_6.0 1.1~exp15
 _ZN3APT12StateChangesC1Ev@APTPKG_6.0 1.1~exp15
 _ZN3APT12StateChangesC2EOS0_@APTPKG_6.0 1.1~exp15
 _ZN3APT12StateChangesC2Ev@APTPKG_6.0 1.1~exp15
 _ZN3APT12StateChangesD1Ev@APTPKG_6.0 1.1~exp15
 _ZN3APT12StateChangesD2Ev@APTPKG_6.0 1.1~exp15
 _ZN3APT12StateChangesaSEOS0_@APTPKG_6.0 1.1~exp15
 _ZN3APT13Configuration10CompressorC1EPKcS3_S3_S3_S3_t@APTPKG_6.0 0.8.12
 _ZN3APT13Configuration10CompressorC2EPKcS3_S3_S3_S3_t@APTPKG_6.0 0.8.12
 _ZN3APT13Configuration12getLanguagesB5cxx11ERKbS2_PPKc@APTPKG_6.0 1.1~exp9
 _ZN3APT13Configuration13checkLanguageENSt7__cxx1112basic_stringIcSt11char_traitsIcESaIcEEEb@APTPKG_6.0 0.9.7.5
 _ZN3APT13Configuration14getCompressorsEb@APTPKG_6.0 0.8.12
 _ZN3APT13Configuration16getArchitecturesB5cxx11ERKb@APTPKG_6.0 1.1~exp9
 _ZN3APT13Configuration16getBuildProfilesB5cxx11Ev@APTPKG_6.0 0.9.16
 _ZN3APT13Configuration17checkArchitectureERKNSt7__cxx1112basic_stringIcSt11char_traitsIcESaIcEEE@APTPKG_6.0 0.8.0
 _ZN3APT13Configuration19getCompressionTypesB5cxx11ERKb@APTPKG_6.0 1.1~exp9
 _ZN3APT13Configuration22getBuildProfilesStringB5cxx11Ev@APTPKG_6.0 0.9.16
 _ZN3APT13Configuration23getCompressorExtensionsB5cxx11Ev@APTPKG_6.0 0.8.12
 _ZN3APT14CacheSetHelper11PackageFromENS0_11PkgSelectorEPNS_25PackageContainerInterfaceER12pkgCacheFileRKNSt7__cxx1112basic_stringIcSt11char_traitsIcESaIcEEE@APTPKG_6.0 1.1~exp4
 _ZN3APT14CacheSetHelper14canNotFindTaskEPNS_25PackageContainerInterfaceER12pkgCacheFileNSt7__cxx1112basic_stringIcSt11char_traitsIcESaIcEEE@APTPKG_6.0 0.8.16~exp9
 _ZN3APT14CacheSetHelper15PackageFromTaskEPNS_25PackageContainerInterfaceER12pkgCacheFileNSt7__cxx1112basic_stringIcSt11char_traitsIcESaIcEEE@APTPKG_6.0 1.1~exp4
 _ZN3APT14CacheSetHelper15canNotFindRegExEPNS_25PackageContainerInterfaceER12pkgCacheFileNSt7__cxx1112basic_stringIcSt11char_traitsIcESaIcEEE@APTPKG_6.0 0.8.16~exp9
 _ZN3APT14CacheSetHelper16PackageFromRegExEPNS_25PackageContainerInterfaceER12pkgCacheFileNSt7__cxx1112basic_stringIcSt11char_traitsIcESaIcEEE@APTPKG_6.0 1.1~exp4
 _ZN3APT14CacheSetHelper16canNotFindAllVerEPNS_25VersionContainerInterfaceER12pkgCacheFileRKN8pkgCache11PkgIteratorE@APTPKG_6.0 0.8.16~exp9
 _ZN3APT14CacheSetHelper16canNotGetVersionENS0_11VerSelectorER12pkgCacheFileRKN8pkgCache11PkgIteratorE@APTPKG_6.0 1.1~exp4
 _ZN3APT14CacheSetHelper17PackageFromStringEPNS_25PackageContainerInterfaceER12pkgCacheFileRKNSt7__cxx1112basic_stringIcSt11char_traitsIcESaIcEEE@APTPKG_6.0 1.1~exp4
 _ZN3APT14CacheSetHelper17canNotFindFnmatchEPNS_25PackageContainerInterfaceER12pkgCacheFileNSt7__cxx1112basic_stringIcSt11char_traitsIcESaIcEEE@APTPKG_6.0 1.1~exp4
 _ZN3APT14CacheSetHelper17canNotFindPackageENS0_11PkgSelectorEPNS_25PackageContainerInterfaceER12pkgCacheFileRKNSt7__cxx1112basic_stringIcSt11char_traitsIcESaIcEEE@APTPKG_6.0 1.1~exp4
 _ZN3APT14CacheSetHelper17canNotFindPackageEPNS_25PackageContainerInterfaceER12pkgCacheFileRKNSt7__cxx1112basic_stringIcSt11char_traitsIcESaIcEEE@APTPKG_6.0 0.8.16~exp9
 _ZN3APT14CacheSetHelper17canNotFindPkgNameER12pkgCacheFileRKNSt7__cxx1112basic_stringIcSt11char_traitsIcESaIcEEE@APTPKG_6.0 0.8.0
 _ZN3APT14CacheSetHelper17canNotFindVersionENS0_11VerSelectorEPNS_25VersionContainerInterfaceER12pkgCacheFileRKN8pkgCache11PkgIteratorE@APTPKG_6.0 1.1~exp4
 _ZN3APT14CacheSetHelper17showTaskSelectionERKN8pkgCache11PkgIteratorERKNSt7__cxx1112basic_stringIcSt11char_traitsIcESaIcEEE@APTPKG_6.0 0.8.16~exp9
 _ZN3APT14CacheSetHelper18PackageFromFnmatchEPNS_25PackageContainerInterfaceER12pkgCacheFileNSt7__cxx1112basic_stringIcSt11char_traitsIcESaIcEEE@APTPKG_6.0 1.1~exp4
 _ZN3APT14CacheSetHelper18PackageFromPatternEPNS_25PackageContainerInterfaceER12pkgCacheFileRKNSt7__cxx1112basic_stringIcSt11char_traitsIcESaIcEEE@APTPKG_6.0 1.9.11~
 _ZN3APT14CacheSetHelper18showRegExSelectionERKN8pkgCache11PkgIteratorERKNSt7__cxx1112basic_stringIcSt11char_traitsIcESaIcEEE@APTPKG_6.0 0.8.16~exp9
 _ZN3APT14CacheSetHelper19canNotFindNewestVerER12pkgCacheFileRKN8pkgCache11PkgIteratorE@APTPKG_6.0 0.8.0
 _ZN3APT14CacheSetHelper19showSelectedVersionERKN8pkgCache11PkgIteratorENS1_11VerIteratorERKNSt7__cxx1112basic_stringIcSt11char_traitsIcESaIcEEEb@APTPKG_6.0 0.8.16~exp9
 _ZN3APT14CacheSetHelper20canNotGetCandInstVerER12pkgCacheFileRKN8pkgCache11PkgIteratorE@APTPKG_6.0 1.1~exp4
 _ZN3APT14CacheSetHelper20canNotGetInstCandVerER12pkgCacheFileRKN8pkgCache11PkgIteratorE@APTPKG_6.0 1.1~exp4
 _ZN3APT14CacheSetHelper20showFnmatchSelectionERKN8pkgCache11PkgIteratorERKNSt7__cxx1112basic_stringIcSt11char_traitsIcESaIcEEE@APTPKG_6.0 1.1~exp4
 _ZN3APT14CacheSetHelper20showPackageSelectionERKN8pkgCache11PkgIteratorENS0_11PkgSelectorERKNSt7__cxx1112basic_stringIcSt11char_traitsIcESaIcEEE@APTPKG_6.0 1.1~exp4
 _ZN3APT14CacheSetHelper20showPatternSelectionERKN8pkgCache11PkgIteratorERKNSt7__cxx1112basic_stringIcSt11char_traitsIcESaIcEEE@APTPKG_6.0 1.9.11~
 _ZN3APT14CacheSetHelper20showVersionSelectionERKN8pkgCache11PkgIteratorERKNS1_11VerIteratorENS0_11VerSelectorERKNSt7__cxx1112basic_stringIcSt11char_traitsIcESaIcEEE@APTPKG_6.0 1.1~exp4
 _ZN3APT14CacheSetHelper21canNotFindCandInstVerEPNS_25VersionContainerInterfaceER12pkgCacheFileRKN8pkgCache11PkgIteratorE@APTPKG_6.0 0.8.16~exp9
 _ZN3APT14CacheSetHelper21canNotFindInstCandVerEPNS_25VersionContainerInterfaceER12pkgCacheFileRKN8pkgCache11PkgIteratorE@APTPKG_6.0 0.8.16~exp9
 _ZN3APT14CacheSetHelper21setLastVersionMatcherERKNSt7__cxx1112basic_stringIcSt11char_traitsIcESaIcEEE@APTPKG_6.0 2.6.1
 _ZN3APT14CacheSetHelper22PackageFromCommandLineEPNS_25PackageContainerInterfaceER12pkgCacheFilePPKc@APTPKG_6.0 1.1~exp4
 _ZN3APT14CacheSetHelper22PackageFromPackageNameEPNS_25PackageContainerInterfaceER12pkgCacheFileNSt7__cxx1112basic_stringIcSt11char_traitsIcESaIcEEE@APTPKG_6.0 1.1~exp4
 _ZN3APT14CacheSetHelper22canNotFindCandidateVerER12pkgCacheFileRKN8pkgCache11PkgIteratorE@APTPKG_6.0 0.8.0
 _ZN3APT14CacheSetHelper22canNotFindInstalledVerER12pkgCacheFileRKN8pkgCache11PkgIteratorE@APTPKG_6.0 0.8.0
 _ZN3APT14CacheSetHelper23canNotGetVerFromReleaseER12pkgCacheFileRKN8pkgCache11PkgIteratorERKNSt7__cxx1112basic_stringIcSt11char_traitsIcESaIcEEE@APTPKG_6.0 2.6.1
 _ZN3APT14CacheSetHelper29canNotGetVerFromVersionNumberER12pkgCacheFileRKN8pkgCache11PkgIteratorERKNSt7__cxx1112basic_stringIcSt11char_traitsIcESaIcEEE@APTPKG_6.0 2.6.1
 _ZN3APT14CacheSetHelper30PackageFromModifierCommandLineERtPNS_25PackageContainerInterfaceER12pkgCacheFilePKcRKNSt7__cxx114listINS0_11PkgModifierESaISA_EEE@APTPKG_6.0 1.1~exp4
 _ZN3APT14CacheSetHelperC1EbN11GlobalError7MsgTypeE@APTPKG_6.0 1.1~exp9
 _ZN3APT14CacheSetHelperC2EbN11GlobalError7MsgTypeE@APTPKG_6.0 1.1~exp9
 _ZN3APT14CacheSetHelperD0Ev@APTPKG_6.0 0.8.0
 _ZN3APT14CacheSetHelperD1Ev@APTPKG_6.0 0.8.0
 _ZN3APT14CacheSetHelperD2Ev@APTPKG_6.0 0.8.0
 _ZN3APT15PackageUniverseC1EP12pkgCacheFile@APTPKG_6.0 1.1~exp9
 _ZN3APT15PackageUniverseC1EP8pkgCache@APTPKG_6.0 1.1~exp9
 _ZN3APT15PackageUniverseC2EP12pkgCacheFile@APTPKG_6.0 1.1~exp9
 _ZN3APT15PackageUniverseC2EP8pkgCache@APTPKG_6.0 1.1~exp9
 _ZN3APT15PackageUniverseD0Ev@APTPKG_6.0 1.1~exp9
 _ZN3APT15PackageUniverseD1Ev@APTPKG_6.0 1.1~exp9
 _ZN3APT15PackageUniverseD2Ev@APTPKG_6.0 1.1~exp9
 _ZN3APT22KernelAutoRemoveHelper25GetProtectedKernelsFilterEP8pkgCacheb@APTPKG_6.0 2.1.16
 _ZN3APT25PackageContainerInterfaceC1ENS_14CacheSetHelper11PkgSelectorE@APTPKG_6.0 1.1~exp9
 _ZN3APT25PackageContainerInterfaceC1ERKS0_@APTPKG_6.0 1.9.11~
 _ZN3APT25PackageContainerInterfaceC1Ev@APTPKG_6.0 1.1~exp9
 _ZN3APT25PackageContainerInterfaceC2ENS_14CacheSetHelper11PkgSelectorE@APTPKG_6.0 1.1~exp9
 _ZN3APT25PackageContainerInterfaceC2ERKS0_@APTPKG_6.0 1.9.11~
 _ZN3APT25PackageContainerInterfaceC2Ev@APTPKG_6.0 1.1~exp9
 _ZN3APT25PackageContainerInterfaceD0Ev@APTPKG_6.0 1.1~exp9
 _ZN3APT25PackageContainerInterfaceD1Ev@APTPKG_6.0 1.1~exp9
 _ZN3APT25PackageContainerInterfaceD2Ev@APTPKG_6.0 1.1~exp9
 _ZN3APT25PackageContainerInterfaceaSERKS0_@APTPKG_6.0 1.1~exp9
 _ZN3APT25VersionContainerInterface10FromStringEPS0_R12pkgCacheFileNSt7__cxx1112basic_stringIcSt11char_traitsIcESaIcEEENS_14CacheSetHelper11VerSelectorERSA_b@APTPKG_6.0 1.1~exp4
 _ZN3APT25VersionContainerInterface11FromPackageEPS0_R12pkgCacheFileRKN8pkgCache11PkgIteratorENS_14CacheSetHelper11VerSelectorERS8_@APTPKG_6.0 1.1~exp4
 _ZN3APT25VersionContainerInterface14FromDependencyEPS0_R12pkgCacheFileRKN8pkgCache11DepIteratorENS_14CacheSetHelper11VerSelectorERS8_@APTPKG_6.0 1.1~exp9
 _ZN3APT25VersionContainerInterface15FromCommandLineEPS0_R12pkgCacheFilePPKcNS_14CacheSetHelper11VerSelectorERS7_@APTPKG_6.0 1.1~exp4
 _ZN3APT25VersionContainerInterface15getCandidateVerER12pkgCacheFileRKN8pkgCache11PkgIteratorERNS_14CacheSetHelperE@APTPKG_6.0 0.8.16~exp9
 _ZN3APT25VersionContainerInterface15getInstalledVerER12pkgCacheFileRKN8pkgCache11PkgIteratorERNS_14CacheSetHelperE@APTPKG_6.0 0.8.16~exp9
 _ZN3APT25VersionContainerInterface23FromModifierCommandLineERtPS0_R12pkgCacheFilePKcRKNSt7__cxx114listINS0_8ModifierESaIS9_EEERNS_14CacheSetHelperE@APTPKG_6.0 0.8.16~exp9
 _ZN3APT25VersionContainerInterfaceC1ERKS0_@APTPKG_6.0 1.9.11~
 _ZN3APT25VersionContainerInterfaceC1Ev@APTPKG_6.0 1.1~exp9
 _ZN3APT25VersionContainerInterfaceC2ERKS0_@APTPKG_6.0 1.9.11~
 _ZN3APT25VersionContainerInterfaceC2Ev@APTPKG_6.0 1.1~exp9
 _ZN3APT25VersionContainerInterfaceD0Ev@APTPKG_6.0 1.1~exp9
 _ZN3APT25VersionContainerInterfaceD1Ev@APTPKG_6.0 1.1~exp9
 _ZN3APT25VersionContainerInterfaceD2Ev@APTPKG_6.0 1.1~exp9
 _ZN3APT25VersionContainerInterfaceaSERKS0_@APTPKG_6.0 1.1~exp9
 _ZN3APT6String10StartswithERKNSt7__cxx1112basic_stringIcSt11char_traitsIcESaIcEEES8_@APTPKG_6.0 1.1~exp2
 _ZN3APT6String13DisplayLengthENS_10StringViewE@APTPKG_6.0 1.9.11~
 _ZN3APT6String4JoinESt6vectorINSt7__cxx1112basic_stringIcSt11char_traitsIcESaIcEEESaIS7_EERKS7_@APTPKG_6.0 1.4~beta4
 _ZN3APT6String5StripERKNSt7__cxx1112basic_stringIcSt11char_traitsIcESaIcEEE@APTPKG_6.0 0.9.13~exp1
 _ZN3APT6String8EndswithERKNSt7__cxx1112basic_stringIcSt11char_traitsIcESaIcEEES8_@APTPKG_6.0 0.9.13.1
 _ZN3APT7Upgrade7UpgradeER11pkgDepCacheiP10OpProgress@APTPKG_6.0 1.1~exp4
 _ZN3APT8Internal17PatternTreeParser4Node5errorENSt7__cxx1112basic_stringIcSt11char_traitsIcESaIcEEE@APTPKG_6.0 1.9.11~
 _ZN3APT8Internal17PatternTreeParser5parseEv@APTPKG_6.0 1.9.11~
 _ZN3APT8Internal17PatternTreeParser8parseTopEv@APTPKG_6.0 1.9.11~
 _ZN3APT8Progress14PackageManager13StatusChangedENSt7__cxx1112basic_stringIcSt11char_traitsIcESaIcEEEjjS7_@APTPKG_6.0 0.9.13~exp1
 _ZN3APT8Progress14PackageManagerC1Ev@APTPKG_6.0 1.1~exp1
 _ZN3APT8Progress14PackageManagerC2Ev@APTPKG_6.0 1.1~exp1
 _ZN3APT8Progress14PackageManagerD0Ev@APTPKG_6.0 0.9.13~exp1
 _ZN3APT8Progress14PackageManagerD1Ev@APTPKG_6.0 0.9.13~exp1
 _ZN3APT8Progress14PackageManagerD2Ev@APTPKG_6.0 0.9.13~exp1
 _ZN3APT8Progress18PackageManagerText13StatusChangedENSt7__cxx1112basic_stringIcSt11char_traitsIcESaIcEEEjjS7_@APTPKG_6.0 0.9.13~exp1
 _ZN3APT8Progress18PackageManagerTextC1Ev@APTPKG_6.0 1.1~exp9
 _ZN3APT8Progress18PackageManagerTextC2Ev@APTPKG_6.0 1.1~exp9
 _ZN3APT8Progress18PackageManagerTextD0Ev@APTPKG_6.0 0.9.13~exp1
 _ZN3APT8Progress18PackageManagerTextD1Ev@APTPKG_6.0 0.9.13~exp1
 _ZN3APT8Progress18PackageManagerTextD2Ev@APTPKG_6.0 0.9.13~exp1
 _ZN3APT8Progress19PackageManagerFancy13SIGWINCH_flagE@APTPKG_6.0 2.6.1
 _ZN3APT8Progress19PackageManagerFancy13SIGWINCH_origE@APTPKG_6.0 2.6.1
 _ZN3APT8Progress19PackageManagerFancy13StatusChangedENSt7__cxx1112basic_stringIcSt11char_traitsIcESaIcEEEjjS7_@APTPKG_6.0 0.9.13~exp1
 _ZN3APT8Progress19PackageManagerFancy14HandleSIGWINCHEi@APTPKG_6.0 0.9.13~exp1
 _ZN3APT8Progress19PackageManagerFancy15GetTerminalSizeEv@APTPKG_6.0 1.0
 _ZN3APT8Progress19PackageManagerFancy18GetTextProgressStrB5cxx11Efi@APTPKG_6.0 1.0
 _ZN3APT8Progress19PackageManagerFancy23SetupTerminalScrollAreaEi@APTPKG_6.0 0.9.13~exp1
 _ZN3APT8Progress19PackageManagerFancy4StopEv@APTPKG_6.0 0.9.13~exp1
 _ZN3APT8Progress19PackageManagerFancy5PulseEv@APTPKG_6.0 2.6.1
 _ZN3APT8Progress19PackageManagerFancy5StartEi@APTPKG_6.0 0.9.14.2
 _ZN3APT8Progress19PackageManagerFancy9instancesE@APTPKG_6.0 0.9.14.2
 _ZN3APT8Progress19PackageManagerFancyC1Ev@APTPKG_6.0 0.9.13~exp1
 _ZN3APT8Progress19PackageManagerFancyC2Ev@APTPKG_6.0 0.9.13~exp1
 _ZN3APT8Progress19PackageManagerFancyD0Ev@APTPKG_6.0 0.9.13~exp1
 _ZN3APT8Progress19PackageManagerFancyD1Ev@APTPKG_6.0 0.9.13~exp1
 _ZN3APT8Progress19PackageManagerFancyD2Ev@APTPKG_6.0 0.9.13~exp1
 _ZN3APT8Progress24PackageManagerProgressFd13StatusChangedENSt7__cxx1112basic_stringIcSt11char_traitsIcESaIcEEEjjS7_@APTPKG_6.0 0.9.13~exp1
 _ZN3APT8Progress24PackageManagerProgressFd14ConffilePromptENSt7__cxx1112basic_stringIcSt11char_traitsIcESaIcEEEjjS7_@APTPKG_6.0 0.9.13~exp1
 _ZN3APT8Progress24PackageManagerProgressFd15WriteToStatusFdENSt7__cxx1112basic_stringIcSt11char_traitsIcESaIcEEE@APTPKG_6.0 0.9.13~exp1
 _ZN3APT8Progress24PackageManagerProgressFd4StopEv@APTPKG_6.0 0.9.13~exp1
 _ZN3APT8Progress24PackageManagerProgressFd5ErrorENSt7__cxx1112basic_stringIcSt11char_traitsIcESaIcEEEjjS7_@APTPKG_6.0 0.9.13~exp1
 _ZN3APT8Progress24PackageManagerProgressFd9StartDpkgEv@APTPKG_6.0 0.9.13~exp1
 _ZN3APT8Progress24PackageManagerProgressFdC1Ei@APTPKG_6.0 0.9.13~exp1
 _ZN3APT8Progress24PackageManagerProgressFdC2Ei@APTPKG_6.0 0.9.13~exp1
 _ZN3APT8Progress24PackageManagerProgressFdD0Ev@APTPKG_6.0 0.9.13~exp1
 _ZN3APT8Progress24PackageManagerProgressFdD1Ev@APTPKG_6.0 0.9.13~exp1
 _ZN3APT8Progress24PackageManagerProgressFdD2Ev@APTPKG_6.0 0.9.13~exp1
 _ZN3APT8Progress29PackageManagerProgressFactoryEv@APTPKG_6.0 0.9.13~exp1
 _ZN3APT8Progress30PackageManagerProgressDeb822Fd13StatusChangedENSt7__cxx1112basic_stringIcSt11char_traitsIcESaIcEEEjjS7_@APTPKG_6.0 0.9.13~exp1
 _ZN3APT8Progress30PackageManagerProgressDeb822Fd14ConffilePromptENSt7__cxx1112basic_stringIcSt11char_traitsIcESaIcEEEjjS7_@APTPKG_6.0 0.9.13~exp1
 _ZN3APT8Progress30PackageManagerProgressDeb822Fd15WriteToStatusFdENSt7__cxx1112basic_stringIcSt11char_traitsIcESaIcEEE@APTPKG_6.0 0.9.13~exp1
 _ZN3APT8Progress30PackageManagerProgressDeb822Fd4StopEv@APTPKG_6.0 0.9.13~exp1
 _ZN3APT8Progress30PackageManagerProgressDeb822Fd5ErrorENSt7__cxx1112basic_stringIcSt11char_traitsIcESaIcEEEjjS7_@APTPKG_6.0 0.9.13~exp1
 _ZN3APT8Progress30PackageManagerProgressDeb822Fd9StartDpkgEv@APTPKG_6.0 0.9.13~exp1
 _ZN3APT8Progress30PackageManagerProgressDeb822FdC1Ei@APTPKG_6.0 0.9.13~exp1
 _ZN3APT8Progress30PackageManagerProgressDeb822FdC2Ei@APTPKG_6.0 0.9.13~exp1
 _ZN3APT8Progress30PackageManagerProgressDeb822FdD0Ev@APTPKG_6.0 0.9.13~exp1
 _ZN3APT8Progress30PackageManagerProgressDeb822FdD1Ev@APTPKG_6.0 0.9.13~exp1
 _ZN3APT8Progress30PackageManagerProgressDeb822FdD2Ev@APTPKG_6.0 0.9.13~exp1
 _ZN3URI11ArchiveOnlyERKNSt7__cxx1112basic_stringIcSt11char_traitsIcESaIcEEE@APTPKG_6.0 1.1~exp9
 _ZN3URI14NoUserPasswordERKNSt7__cxx1112basic_stringIcSt11char_traitsIcESaIcEEE@APTPKG_6.0 0.8.0
 _ZN3URI8CopyFromERKNSt7__cxx1112basic_stringIcSt11char_traitsIcESaIcEEE@APTPKG_6.0 0.8.0
 _ZN3URI8SiteOnlyERKNSt7__cxx1112basic_stringIcSt11char_traitsIcESaIcEEE@APTPKG_6.0 0.8.0
 _ZN3URIcvNSt7__cxx1112basic_stringIcSt11char_traitsIcESaIcEEEEv@APTPKG_6.0 0.8.0
 _ZN4EDSP10WriteErrorEPKcRKNSt7__cxx1112basic_stringIcSt11char_traitsIcESaIcEEER6FileFd@APTPKG_6.0 1.3~exp2
 _ZN4EDSP11ReadRequestEiRNSt7__cxx114listINS0_12basic_stringIcSt11char_traitsIcESaIcEEESaIS6_EEES9_Rj@APTPKG_6.0 1.3~exp2
 _ZN4EDSP12ApplyRequestERKNSt7__cxx114listINS0_12basic_stringIcSt11char_traitsIcESaIcEEESaIS6_EEESA_R11pkgDepCache@APTPKG_6.0 0.8.16~exp2
 _ZN4EDSP12ReadResponseEiR11pkgDepCacheP10OpProgress@APTPKG_6.0 0.8.16~exp2
 _ZN4EDSP12WriteRequestER11pkgDepCacheR6FileFdjP10OpProgress@APTPKG_6.0 1.3~exp2
 _ZN4EDSP13ExecuteSolverEPKcPiS2_b@APTPKG_6.0 1.0.4
 _ZN4EDSP13WriteProgressEtPKcR6FileFd@APTPKG_6.0 1.3~exp2
 _ZN4EDSP13WriteScenarioER11pkgDepCacheR6FileFdP10OpProgress@APTPKG_6.0 1.3~exp2
 _ZN4EDSP15ResolveExternalEPKcR11pkgDepCachejP10OpProgress@APTPKG_6.0 1.3~exp2
 _ZN4EDSP19WriteSolutionStanzaER6FileFdPKcRKN8pkgCache11VerIteratorE@APTPKG_6.0 1.3~exp2
 _ZN4EDSP20WriteLimitedScenarioER11pkgDepCacheR6FileFdRKSt6vectorIbSaIbEEP10OpProgress@APTPKG_6.0 1.3~exp2
 _ZN4EIPP11ReadRequestEiRNSt7__cxx114listISt4pairINS0_12basic_stringIcSt11char_traitsIcESaIcEEENS_10PKG_ACTIONEESaIS9_EEERj@APTPKG_6.0 1.3~rc2
 _ZN4EIPP12ApplyRequestERNSt7__cxx114listISt4pairINS0_12basic_stringIcSt11char_traitsIcESaIcEEENS_10PKG_ACTIONEESaIS9_EEER11pkgDepCache@APTPKG_6.0 1.3~rc2
 _ZN6FileFd14OpenDescriptorEijNS_12CompressModeEb@APTPKG_6.0 0.8.16~exp9
 _ZN6FileFd14OpenDescriptorEijRKN3APT13Configuration10CompressorEb@APTPKG_6.0 0.8.16~exp9
 _ZN6FileFd16ModificationTimeEv@APTPKG_6.0 0.8.16~exp9
 _ZN6FileFd4OpenENSt7__cxx1112basic_stringIcSt11char_traitsIcESaIcEEEjNS_12CompressModeEm@APTPKG_6.0 0.8.16~exp9
 _ZN6FileFd4OpenENSt7__cxx1112basic_stringIcSt11char_traitsIcESaIcEEEjRKN3APT13Configuration10CompressorEm@APTPKG_6.0 0.8.16~exp9
 _ZN6FileFd4ReadEPvyPy@APTPKG_6.0 0.8.16~exp6
 _ZN6FileFd4ReadEiPvyPy@APTPKG_6.0 1.3~rc2
 _ZN6FileFd4SeekEy@APTPKG_6.0 0.8.16~exp6
 _ZN6FileFd4SizeEv@APTPKG_6.0 0.8.0
 _ZN6FileFd4SkipEy@APTPKG_6.0 0.8.16~exp6
 _ZN6FileFd4SyncEv@APTPKG_6.0 0.8.0
 _ZN6FileFd4TellEv@APTPKG_6.0 0.8.0
 _ZN6FileFd5CloseEv@APTPKG_6.0 0.8.0
 _ZN6FileFd5FlushEv@APTPKG_6.0 1.1.9
 _ZN6FileFd5WriteEPKvy@APTPKG_6.0 0.8.16~exp6
 _ZN6FileFd5WriteEiPKvy@APTPKG_6.0 0.8.16~exp14
 _ZN6FileFd8FileSizeEv@APTPKG_6.0 0.8.8
 _ZN6FileFd8ReadLineEPcy@APTPKG_6.0 0.8.16~exp9
 _ZN6FileFd8ReadLineERNSt7__cxx1112basic_stringIcSt11char_traitsIcESaIcEEE@APTPKG_6.0 1.5~beta2~
 _ZN6FileFd8TruncateEy@APTPKG_6.0 0.8.16~exp6
 _ZN6FileFdC1ENSt7__cxx1112basic_stringIcSt11char_traitsIcESaIcEEEjNS_12CompressModeEm@APTPKG_6.0 1.1~exp9
 _ZN6FileFdC1ENSt7__cxx1112basic_stringIcSt11char_traitsIcESaIcEEEjm@APTPKG_6.0 1.1~exp4
 _ZN6FileFdC1Eib@APTPKG_6.0 1.1~exp9
 _ZN6FileFdC1EijNS_12CompressModeE@APTPKG_6.0 1.1~exp9
 _ZN6FileFdC1Ev@APTPKG_6.0 1.1~exp9
 _ZN6FileFdC2ENSt7__cxx1112basic_stringIcSt11char_traitsIcESaIcEEEjNS_12CompressModeEm@APTPKG_6.0 1.1~exp9
 _ZN6FileFdC2ENSt7__cxx1112basic_stringIcSt11char_traitsIcESaIcEEEjm@APTPKG_6.0 1.1~exp4
 _ZN6FileFdC2Eib@APTPKG_6.0 1.1~exp9
 _ZN6FileFdC2EijNS_12CompressModeE@APTPKG_6.0 1.1~exp9
 _ZN6FileFdC2Ev@APTPKG_6.0 1.1~exp9
 _ZN6FileFdD0Ev@APTPKG_6.0 0.8.0
 _ZN6FileFdD1Ev@APTPKG_6.0 0.8.0
 _ZN6FileFdD2Ev@APTPKG_6.0 0.8.0
 _ZN6Hashes13GetHashStringENS_15SupportedHashesE@APTPKG_6.0 1.9.11~
 _ZN6Hashes17GetHashStringListEv@APTPKG_6.0 1.1~exp1
 _ZN6Hashes3AddEPKhy@APTPKG_6.0 1.1~exp9
 _ZN6Hashes5AddFDER6FileFdy@APTPKG_6.0 1.1~exp9
 _ZN6Hashes5AddFDEiy@APTPKG_6.0 1.1~exp9
 _ZN6HashesC1ERK14HashStringList@APTPKG_6.0 1.1~exp9
 _ZN6HashesC1Ej@APTPKG_6.0 1.1~exp9
 _ZN6HashesC1Ev@APTPKG_6.0 1.1~exp1
 _ZN6HashesC2ERK14HashStringList@APTPKG_6.0 1.1~exp9
 _ZN6HashesC2Ej@APTPKG_6.0 1.1~exp9
 _ZN6HashesC2Ev@APTPKG_6.0 1.1~exp1
 _ZN6HashesD0Ev@APTPKG_6.0 1.1~exp1
 _ZN6HashesD1Ev@APTPKG_6.0 1.1~exp1
 _ZN6HashesD2Ev@APTPKG_6.0 1.1~exp1
 _ZN8pkgCache11CompTypeDebEh@APTPKG_6.0 0.8.0
 _ZN8pkgCache11DepIterator6GlobOrERS0_S1_@APTPKG_6.0 0.8.0
 _ZN8pkgCache11DepIteratorppEv@APTPKG_6.0 0.8.0
 _ZN8pkgCache11GrpIteratorppEv@APTPKG_6.0 0.8.0
 _ZN8pkgCache11PkgIteratorppEv@APTPKG_6.0 0.8.0
 _ZN8pkgCache15PkgFileIterator6RelStrB5cxx11Ev@APTPKG_6.0 0.8.0
 _ZN8pkgCache15RlsFileIterator6RelStrB5cxx11Ev@APTPKG_6.0 1.1~exp9
 _ZN8pkgCache5ReMapERKb@APTPKG_6.0 0.8.0
 _ZN8pkgCache6HeaderC1Ev@APTPKG_6.0 0.8.0
 _ZN8pkgCache6HeaderC2Ev@APTPKG_6.0 0.8.0
 _ZN8pkgCache7DepTypeEh@APTPKG_6.0 0.8.0
 _ZN8pkgCache7FindGrpEN3APT10StringViewE@APTPKG_6.0 1.9~
 _ZN8pkgCache7FindPkgEN3APT10StringViewE@APTPKG_6.0 1.9~
 _ZN8pkgCache7FindPkgEN3APT10StringViewES1_@APTPKG_6.0 1.9~
 _ZN8pkgCache8CompTypeEh@APTPKG_6.0 0.8.0
 _ZN8pkgCache8PriorityEh@APTPKG_6.0 0.8.0
 _ZN8pkgCacheC1EP4MMapb@APTPKG_6.0 0.8.0
 _ZN8pkgCacheC2EP4MMapb@APTPKG_6.0 0.8.0
 _ZN8pkgCacheD0Ev@APTPKG_6.0 0.8.0
 _ZN8pkgCacheD1Ev@APTPKG_6.0 0.8.0
 _ZN8pkgCacheD2Ev@APTPKG_6.0 0.8.0
 _ZN8pkgCdrom11DropRepeatsERSt6vectorINSt7__cxx1112basic_stringIcSt11char_traitsIcESaIcEEESaIS6_EEPKc@APTPKG_6.0 0.8.0
 _ZN8pkgCdrom12FindPackagesENSt7__cxx1112basic_stringIcSt11char_traitsIcESaIcEEERSt6vectorIS5_SaIS5_EES9_S9_S9_RS5_P14pkgCdromStatusj@APTPKG_6.0 0.8.0
 _ZN8pkgCdrom13WriteDatabaseER13Configuration@APTPKG_6.0 0.8.0
 _ZN8pkgCdrom14DropBinaryArchERSt6vectorINSt7__cxx1112basic_stringIcSt11char_traitsIcESaIcEEESaIS6_EE@APTPKG_6.0 0.8.0
 _ZN8pkgCdrom15DropTranslationERSt6vectorINSt7__cxx1112basic_stringIcSt11char_traitsIcESaIcEEESaIS6_EE@APTPKG_6.0 0.9.7.5
 _ZN8pkgCdrom15WriteSourceListENSt7__cxx1112basic_stringIcSt11char_traitsIcESaIcEEERSt6vectorIS5_SaIS5_EEb@APTPKG_6.0 0.8.0
 _ZN8pkgCdrom16ReduceSourcelistENSt7__cxx1112basic_stringIcSt11char_traitsIcESaIcEEERSt6vectorIS5_SaIS5_EE@APTPKG_6.0 0.8.0
 _ZN8pkgCdrom3AddEP14pkgCdromStatus@APTPKG_6.0 0.8.0
 _ZN8pkgCdrom5IdentERNSt7__cxx1112basic_stringIcSt11char_traitsIcESaIcEEEP14pkgCdromStatus@APTPKG_6.0 0.8.0
 _ZN8pkgCdrom5ScoreENSt7__cxx1112basic_stringIcSt11char_traitsIcESaIcEEE@APTPKG_6.0 0.8.0
 _ZN8pkgCdromC1Ev@APTPKG_6.0 1.1~exp9
 _ZN8pkgCdromC2Ev@APTPKG_6.0 1.1~exp9
 _ZN8pkgCdromD0Ev@APTPKG_6.0 1.1~exp9
 _ZN8pkgCdromD1Ev@APTPKG_6.0 1.1~exp9
 _ZN8pkgCdromD2Ev@APTPKG_6.0 1.1~exp9
 _ZN9ARArchive11LoadHeadersEv@APTPKG_6.0 0.8.0
 _ZN9ARArchiveC1ER6FileFd@APTPKG_6.0 0.8.0
 _ZN9ARArchiveC2ER6FileFd@APTPKG_6.0 0.8.0
 _ZN9ARArchiveD1Ev@APTPKG_6.0 0.8.0
 _ZN9ARArchiveD2Ev@APTPKG_6.0 0.8.0
 _ZN9IndexCopy12CopyPackagesENSt7__cxx1112basic_stringIcSt11char_traitsIcESaIcEEES5_RSt6vectorIS5_SaIS5_EEP14pkgCdromStatus@APTPKG_6.0 0.8.0
 _ZN9IndexCopy15ReconstructChopERmNSt7__cxx1112basic_stringIcSt11char_traitsIcESaIcEEES6_@APTPKG_6.0 0.8.0
 _ZN9IndexCopy17ReconstructPrefixERNSt7__cxx1112basic_stringIcSt11char_traitsIcESaIcEEES5_S5_S5_@APTPKG_6.0 0.8.0
 _ZN9IndexCopy19ConvertToSourceListENSt7__cxx1112basic_stringIcSt11char_traitsIcESaIcEEERS5_@APTPKG_6.0 0.8.0
 _ZN9IndexCopy8ChopDirsENSt7__cxx1112basic_stringIcSt11char_traitsIcESaIcEEEj@APTPKG_6.0 0.8.0
 _ZN9IndexCopy9GrabFirstENSt7__cxx1112basic_stringIcSt11char_traitsIcESaIcEEERS5_j@APTPKG_6.0 0.8.0
 _ZN9IndexCopyC1Ev@APTPKG_6.0 1.1~exp9
 _ZN9IndexCopyC2Ev@APTPKG_6.0 1.1~exp9
 _ZN9IndexCopyD0Ev@APTPKG_6.0 0.8.0
 _ZN9IndexCopyD1Ev@APTPKG_6.0 0.8.0
 _ZN9IndexCopyD2Ev@APTPKG_6.0 0.8.0
 _ZN9SigVerify13CopyAndVerifyENSt7__cxx1112basic_stringIcSt11char_traitsIcESaIcEEES5_RSt6vectorIS5_SaIS5_EES8_S8_@APTPKG_6.0 0.8.0
 _ZN9SigVerifyC1Ev@APTPKG_6.0 1.1~exp9
 _ZN9SigVerifyC2Ev@APTPKG_6.0 1.1~exp9
 _ZN9SigVerifyD0Ev@APTPKG_6.0 1.1~exp9
 _ZN9SigVerifyD1Ev@APTPKG_6.0 1.1~exp9
 _ZN9SigVerifyD2Ev@APTPKG_6.0 1.1~exp9
 _ZN9__gnu_cxx6__stoaIlicJiEEET0_PFT_PKT1_PPS3_DpT2_EPKcS5_PmS9_@APTPKG_6.0 1.3~exp2
 _ZN9metaIndex8swapLoadEPS_@APTPKG_6.0 1.1~exp9
 _ZN9metaIndexC1ERKNSt7__cxx1112basic_stringIcSt11char_traitsIcESaIcEEES7_PKc@APTPKG_6.0 1.1~exp9
 _ZN9metaIndexC2ERKNSt7__cxx1112basic_stringIcSt11char_traitsIcESaIcEEES7_PKc@APTPKG_6.0 1.1~exp9
 _ZN9metaIndexD0Ev@APTPKG_6.0 1.1~exp1
 _ZN9metaIndexD1Ev@APTPKG_6.0 1.1~exp1
 _ZN9metaIndexD2Ev@APTPKG_6.0 1.1~exp1
 _ZN9pkgDPkgPM12SendPkgsInfoEP8_IO_FILERKj@APTPKG_6.0 0.9.9.1
 _ZN9pkgDPkgPM12StopPtyMagicEv@APTPKG_6.0 0.9.13~exp1
 _ZN9pkgDPkgPM13DoTerminalPtyEi@APTPKG_6.0 0.8.0
 _ZN9pkgDPkgPM13StartPtyMagicEv@APTPKG_6.0 0.9.13~exp1
 _ZN9pkgDPkgPM14DoDpkgStatusFdEi@APTPKG_6.0 0.9.13~exp1
 _ZN9pkgDPkgPM15WriteHistoryTagERKNSt7__cxx1112basic_stringIcSt11char_traitsIcESaIcEEES5_@APTPKG_6.0 0.8.0
 _ZN9pkgDPkgPM17WriteApportReportEPKcS1_@APTPKG_6.0 0.8.0
 _ZN9pkgDPkgPM18RunScriptsWithPkgsEPKc@APTPKG_6.0 0.8.0
 _ZN9pkgDPkgPM18SetupSlavePtyMagicEv@APTPKG_6.0 1.0.8
 _ZN9pkgDPkgPM21ProcessDpkgStatusLineEPc@APTPKG_6.0 0.9.13~exp1
 _ZN9pkgDPkgPM24BuildPackagesProgressMapEv@APTPKG_6.0 0.9.13~exp1
 _ZN9pkgDPkgPM2GoEPN3APT8Progress14PackageManagerE@APTPKG_6.0 1.1~exp1
 _ZN9pkgDPkgPM5ResetEv@APTPKG_6.0 0.8.0
 _ZN9pkgDPkgPM6RemoveEN8pkgCache11PkgIteratorEb@APTPKG_6.0 0.8.0
 _ZN9pkgDPkgPM7DoStdinEi@APTPKG_6.0 0.8.0
 _ZN9pkgDPkgPM7InstallEN8pkgCache11PkgIteratorENSt7__cxx1112basic_stringIcSt11char_traitsIcESaIcEEE@APTPKG_6.0 0.8.0
 _ZN9pkgDPkgPM7OpenLogEv@APTPKG_6.0 0.8.0
 _ZN9pkgDPkgPM8CloseLogEv@APTPKG_6.0 0.8.0
 _ZN9pkgDPkgPM9ConfigureEN8pkgCache11PkgIteratorE@APTPKG_6.0 0.8.0
 _ZN9pkgDPkgPMC1EP11pkgDepCache@APTPKG_6.0 0.8.0
 _ZN9pkgDPkgPMC2EP11pkgDepCache@APTPKG_6.0 0.8.0
 _ZN9pkgDPkgPMD0Ev@APTPKG_6.0 0.8.0
 _ZN9pkgDPkgPMD1Ev@APTPKG_6.0 0.8.0
 _ZN9pkgDPkgPMD2Ev@APTPKG_6.0 0.8.0
 _ZN9pkgPolicy11GetPriorityERKN8pkgCache11VerIteratorEb@APTPKG_6.0 1.1~exp9
 _ZN9pkgPolicy11GetPriorityERKN8pkgCache15PkgFileIteratorE@APTPKG_6.0 0.8.16~exp6
 _ZN9pkgPolicy11SetPriorityERKN8pkgCache11VerIteratorEs@APTPKG_6.0 1.9.11~
 _ZN9pkgPolicy11SetPriorityERKN8pkgCache15PkgFileIteratorEs@APTPKG_6.0 1.9.11~
 _ZN9pkgPolicy12InitDefaultsEv@APTPKG_6.0 0.8.0
 _ZN9pkgPolicy15GetCandidateVerERKN8pkgCache11PkgIteratorE@APTPKG_6.0 0.8.0
 _ZN9pkgPolicy9CreatePinEN15pkgVersionMatch9MatchTypeENSt7__cxx1112basic_stringIcSt11char_traitsIcESaIcEEES7_s@APTPKG_6.0 0.8.0
 _ZN9pkgPolicyC1EP8pkgCache@APTPKG_6.0 0.8.0
 _ZN9pkgPolicyC2EP8pkgCache@APTPKG_6.0 0.8.0
 _ZN9pkgPolicyD0Ev@APTPKG_6.0 0.8.0
 _ZN9pkgPolicyD1Ev@APTPKG_6.0 0.8.0
 _ZN9pkgPolicyD2Ev@APTPKG_6.0 0.8.0
 _ZN9pkgSystem10GlobalListE@APTPKG_6.0 0.8.0
 _ZN9pkgSystem13GlobalListLenE@APTPKG_6.0 0.8.0
 _ZN9pkgSystem9GetSystemEPKc@APTPKG_6.0 0.8.0
 _ZN9pkgSystemC1EPKcP19pkgVersioningSystem@APTPKG_6.0 1.1~exp9
 _ZN9pkgSystemC2EPKcP19pkgVersioningSystem@APTPKG_6.0 1.1~exp9
 _ZN9pkgSystemD0Ev@APTPKG_6.0 1.1~exp9
 _ZN9pkgSystemD1Ev@APTPKG_6.0 1.1~exp9
 _ZN9pkgSystemD2Ev@APTPKG_6.0 1.1~exp9
 _ZNK10HashString10VerifyFileENSt7__cxx1112basic_stringIcSt11char_traitsIcESaIcEEE@APTPKG_6.0 0.8.0
 _ZNK10HashString14GetHashForFileENSt7__cxx1112basic_stringIcSt11char_traitsIcESaIcEEE@APTPKG_6.0 0.9.13.1
 _ZNK10HashString5emptyEv@APTPKG_6.0 0.8.0
 _ZNK10HashString5toStrB5cxx11Ev@APTPKG_6.0 0.8.0
 _ZNK10HashString6usableEv@APTPKG_6.0 1.1~exp15
 _ZNK10HashStringeqERKS_@APTPKG_6.0 1.0.9.4
 _ZNK10HashStringneERKS_@APTPKG_6.0 1.0.9.4
 _ZNK10pkgAcqFile14HashesRequiredEv@APTPKG_6.0 1.1~exp9
 _ZNK10pkgAcqFile16Custom600HeadersB5cxx11Ev@APTPKG_6.0 1.1~exp1
 _ZNK10pkgAcqFile17GetExpectedHashesEv@APTPKG_6.0 1.1~exp9
 _ZNK10pkgAcquire4Item16Custom600HeadersB5cxx11Ev@APTPKG_6.0 1.1~exp1
 _ZNK10pkgAcquire4Item16GetFinalFilenameB5cxx11Ev@APTPKG_6.0 1.1~exp9
 _ZNK10pkgAcquire4Item7HashSumB5cxx11Ev@APTPKG_6.0 1.1~exp9
 _ZNK10pkgAcquire4Item8GetOwnerEv@APTPKG_6.0 1.1~exp9
 _ZNK10pkgAcquire4Item9IsTrustedEv@APTPKG_6.0 1.1~exp1
 _ZNK10pkgAcquire4Item9ShortDescB5cxx11Ev@APTPKG_6.0 1.1~exp9
 _ZNK10pkgAcquire5Queue5QItem14GetMaximumSizeEv@APTPKG_6.0 1.1~exp9
 _ZNK10pkgAcquire5Queue5QItem16Custom600HeadersB5cxx11Ev@APTPKG_6.0 1.1~exp9
 _ZNK10pkgAcquire5Queue5QItem17GetExpectedHashesEv@APTPKG_6.0 1.1~exp9
 _ZNK10pkgAcquire5Queue5QItem20SyncDestinationFilesEv@APTPKG_6.0 1.1~exp9
 _ZNK11CommandLine8FileSizeEv@APTPKG_6.0 0.8.0
 _ZNK11GlobalError5emptyERKNS_7MsgTypeE@APTPKG_6.0 0.8.0
 _ZNK11IndexTarget10OptionBoolENS_10OptionKeysE@APTPKG_6.0 1.1~exp12
 _ZNK11IndexTarget6FormatENSt7__cxx1112basic_stringIcSt11char_traitsIcESaIcEEE@APTPKG_6.0 1.1~exp9
 _ZNK11IndexTarget6OptionB5cxx11ENS_10OptionKeysE@APTPKG_6.0 1.1~exp9
 _ZNK11pkgDepCache12VersionStateEN8pkgCache11DepIteratorEhhh@APTPKG_6.0 1.1~exp9
 _ZNK11pkgDepCache6Policy14IsImportantDepERKN8pkgCache11DepIteratorE@APTPKG_6.0 1.1~exp9
 _ZNK12pkgAcqMethod11PrintStatusEPKcS1_RSt9__va_list@APTPKG_6.0 0.8.15~exp1
 _ZNK12pkgIndexFile10SourceInfoB5cxx11ERKN13pkgSrcRecords6ParserERKNS0_4FileE@APTPKG_6.0 1.1~exp9
 _ZNK12pkgIndexFile11ArchiveInfoB5cxx11ERKN8pkgCache11VerIteratorE@APTPKG_6.0 1.1~exp9
 _ZNK12pkgIndexFile11FindInCacheER8pkgCache@APTPKG_6.0 0.8.0
 _ZNK13Configuration10FindVectorEPKcRKNSt7__cxx1112basic_stringIcSt11char_traitsIcESaIcEEEb@APTPKG_6.0 1.1~exp9
 _ZNK13Configuration18MatchAgainstConfig5MatchEPKc@APTPKG_6.0 0.8.0
 _ZNK13Configuration4FindB5cxx11EPKcS1_@APTPKG_6.0 0.8.0
 _ZNK13Configuration4Item7FullTagB5cxx11EPKS0_@APTPKG_6.0 0.8.0
 _ZNK13Configuration5FindBEPKcRKb@APTPKG_6.0 0.8.0
 _ZNK13Configuration5FindIEPKcRKi@APTPKG_6.0 0.8.0
 _ZNK13Configuration6ExistsEPKc@APTPKG_6.0 0.8.0
 _ZNK13Configuration7FindAnyB5cxx11EPKcS1_@APTPKG_6.0 0.8.0
 _ZNK13Configuration7FindDirB5cxx11EPKcS1_@APTPKG_6.0 0.8.0
 _ZNK13Configuration8FindFileB5cxx11EPKcS1_@APTPKG_6.0 0.8.0
 _ZNK13Configuration9ExistsAnyEPKc@APTPKG_6.0 0.8.0
 _ZNK13pkgAcqArchive14HashesRequiredEv@APTPKG_6.0 1.1~exp9
 _ZNK13pkgAcqArchive16GetFinalFilenameB5cxx11Ev@APTPKG_6.0 1.1~exp9
 _ZNK13pkgAcqArchive17GetExpectedHashesEv@APTPKG_6.0 1.1~exp9
 _ZNK13pkgAcqArchive7DescURIB5cxx11Ev@APTPKG_6.0 1.1~exp9
 _ZNK13pkgAcqArchive9IsTrustedEv@APTPKG_6.0 1.1~exp1
 _ZNK13pkgAcqArchive9ShortDescB5cxx11Ev@APTPKG_6.0 1.1~exp9
 _ZNK13pkgSourceList10GetIndexesEP10pkgAcquireb@APTPKG_6.0 0.8.0
 _ZNK13pkgSourceList16GetVolatileFilesEv@APTPKG_6.0 1.1~exp9
 _ZNK13pkgSourceList4Type8FixupURIERNSt7__cxx1112basic_stringIcSt11char_traitsIcESaIcEEE@APTPKG_6.0 0.8.0
 _ZNK13pkgSourceList4Type9ParseLineERSt6vectorIP9metaIndexSaIS3_EEPKcjRKNSt7__cxx1112basic_stringIcSt11char_traitsIcESaIcEEE@APTPKG_6.0 1.1~exp9
 _ZNK13pkgSourceList9FindIndexEN8pkgCache15PkgFileIteratorERP12pkgIndexFile@APTPKG_6.0 0.8.0
 _ZNK13pkgTagSection3GetERPKcS2_j@APTPKG_6.0 1.1~exp9
 _ZNK13pkgTagSection4FindEN3APT10StringViewE@APTPKG_6.0 1.9~
 _ZNK13pkgTagSection4FindEN3APT10StringViewERPKcS4_@APTPKG_6.0 1.9~
 _ZNK13pkgTagSection4FindEN3APT10StringViewERj@APTPKG_6.0 1.9~
 _ZNK13pkgTagSection4FindENS_3KeyE@APTPKG_6.0 2.6.1
 _ZNK13pkgTagSection4FindENS_3KeyERPKcS3_@APTPKG_6.0 2.6.1
 _ZNK13pkgTagSection4FindENS_3KeyERj@APTPKG_6.0 2.6.1
 _ZNK13pkgTagSection5CountEv@APTPKG_6.0 1.1~exp1
 _ZNK13pkgTagSection5FindBEN3APT10StringViewEb@APTPKG_6.0 1.9~
 _ZNK13pkgTagSection5FindBENS_3KeyEb@APTPKG_6.0 2.6.1
 _ZNK13pkgTagSection5FindIEN3APT10StringViewEl@APTPKG_6.0 1.9~
 _ZNK13pkgTagSection5FindIENS_3KeyEl@APTPKG_6.0 2.6.1
 _ZNK13pkgTagSection5WriteER6FileFdPKPKcRKSt6vectorINS_3TagESaIS7_EE@APTPKG_6.0 1.1~exp9
 _ZNK13pkgTagSection6ExistsEN3APT10StringViewE@APTPKG_6.0 1.9~
 _ZNK13pkgTagSection6ExistsENS_3KeyE@APTPKG_6.0 2.6.1
 _ZNK13pkgTagSection7FindRawEN3APT10StringViewE@APTPKG_6.0 1.9~
 _ZNK13pkgTagSection7FindRawENS_3KeyE@APTPKG_6.0 2.6.1
 _ZNK13pkgTagSection7FindULLEN3APT10StringViewERKy@APTPKG_6.0 1.9~
 _ZNK13pkgTagSection7FindULLENS_3KeyERKy@APTPKG_6.0 2.6.1
 _ZNK13pkgTagSection8FindFlagEN3APT10StringViewERhh@APTPKG_6.0 1.9~
 _ZNK13pkgTagSection8FindFlagEN3APT10StringViewERmm@APTPKG_6.0 1.9~
 _ZNK13pkgTagSection8FindFlagENS_3KeyERhh@APTPKG_6.0 2.6.1
 _ZNK13pkgTagSection8FindFlagENS_3KeyERmm@APTPKG_6.0 2.6.1
 _ZNK14HashStringList10VerifyFileENSt7__cxx1112basic_stringIcSt11char_traitsIcESaIcEEE@APTPKG_6.0 1.0.9.4
 _ZNK14HashStringList4findEPKc@APTPKG_6.0 1.0.9.4
 _ZNK14HashStringList6usableEv@APTPKG_6.0 1.1~exp1
 _ZNK14HashStringList8FileSizeEv@APTPKG_6.0 1.1~exp9
 _ZNK14HashStringListeqERKS_@APTPKG_6.0 1.0.9.4
 _ZNK14HashStringListneERKS_@APTPKG_6.0 1.0.9.4
 _ZNK15debDscFileIndex12GetComponentB5cxx11Ev@APTPKG_6.0 1.1.4
 _ZNK15debDscFileIndex13GetIndexFlagsEv@APTPKG_6.0 1.1.4
 _ZNK15debDscFileIndex15CreateSrcParserEv@APTPKG_6.0 1.1~exp9
 _ZNK15debDscFileIndex15GetArchitectureB5cxx11Ev@APTPKG_6.0 1.1.4
 _ZNK15debDscFileIndex7GetTypeEv@APTPKG_6.0 1.1~exp9
 _ZNK18pkgDebianIndexFile11FindInCacheER8pkgCache@APTPKG_6.0 1.1~exp9
 _ZNK21debStringPackageIndex12GetComponentB5cxx11Ev@APTPKG_6.0 1.2.2
 _ZNK21debStringPackageIndex13GetIndexFlagsEv@APTPKG_6.0 1.2.2
 _ZNK21debStringPackageIndex15GetArchitectureB5cxx11Ev@APTPKG_6.0 1.2.2
 _ZNK21debStringPackageIndex7GetTypeEv@APTPKG_6.0 1.2.2
 _ZNK22pkgDebianIndexRealFile10ArchiveURIERKNSt7__cxx1112basic_stringIcSt11char_traitsIcESaIcEEE@APTPKG_6.0 1.1~exp9
 _ZNK22pkgDebianIndexRealFile13IndexFileNameB5cxx11Ev@APTPKG_6.0 1.1~exp9
 _ZNK22pkgDebianIndexRealFile22GetProgressDescriptionB5cxx11Ev@APTPKG_6.0 1.1~exp9
 _ZNK22pkgDebianIndexRealFile4SizeEv@APTPKG_6.0 1.1~exp9
 _ZNK22pkgDebianIndexRealFile6ExistsEv@APTPKG_6.0 1.1~exp9
 _ZNK22pkgDebianIndexRealFile8DescribeB5cxx11Eb@APTPKG_6.0 1.1~exp9
 _ZNK24pkgDebianIndexTargetFile10ArchiveURIERKNSt7__cxx1112basic_stringIcSt11char_traitsIcESaIcEEE@APTPKG_6.0 1.1~exp9
 _ZNK24pkgDebianIndexTargetFile12GetComponentB5cxx11Ev@APTPKG_6.0 1.1~exp9
 _ZNK24pkgDebianIndexTargetFile13IndexFileNameB5cxx11Ev@APTPKG_6.0 1.1~exp9
 _ZNK24pkgDebianIndexTargetFile15GetArchitectureB5cxx11Ev@APTPKG_6.0 1.1~exp9
 _ZNK24pkgDebianIndexTargetFile22GetProgressDescriptionB5cxx11Ev@APTPKG_6.0 1.1~exp9
 _ZNK24pkgDebianIndexTargetFile4SizeEv@APTPKG_6.0 1.1~exp9
 _ZNK24pkgDebianIndexTargetFile6ExistsEv@APTPKG_6.0 1.1~exp9
 _ZNK24pkgDebianIndexTargetFile8DescribeB5cxx11Eb@APTPKG_6.0 1.1~exp9
 _ZNK3APT12StateChanges5emptyEv@APTPKG_6.0 1.1~exp15
 _ZNK3APT14CacheSetHelper21getLastVersionMatcherB5cxx11Ev@APTPKG_6.0 2.6.1
 _ZNK6SrvReceqERKS_@APTPKG_6.0 1.1~exp15
 _ZNK8pkgCache11DepIterator10AllTargetsEv@APTPKG_6.0 0.8.0
 _ZNK8pkgCache11DepIterator10IsCriticalEv@APTPKG_6.0 0.8.0
 _ZNK8pkgCache11DepIterator10IsImplicitEv@APTPKG_6.0 1.1~exp9
 _ZNK8pkgCache11DepIterator10IsNegativeEv@APTPKG_6.0 0.8.15~exp1
 _ZNK8pkgCache11DepIterator11IsIgnorableERKNS_11PkgIteratorE@APTPKG_6.0 0.8.16~exp10
 _ZNK8pkgCache11DepIterator11IsIgnorableERKNS_11PrvIteratorE@APTPKG_6.0 0.8.16~exp10
 _ZNK8pkgCache11DepIterator11IsSatisfiedERKNS_11PrvIteratorE@APTPKG_6.0 0.9.8
 _ZNK8pkgCache11DepIterator11IsSatisfiedERKNS_11VerIteratorE@APTPKG_6.0 0.9.8
 _ZNK8pkgCache11DepIterator14SmartTargetPkgERNS_11PkgIteratorE@APTPKG_6.0 0.8.0
 _ZNK8pkgCache11GrpIterator16FindPreferredPkgERKb@APTPKG_6.0 0.8.0
 _ZNK8pkgCache11GrpIterator7FindPkgEN3APT10StringViewE@APTPKG_6.0 1.9~
 _ZNK8pkgCache11GrpIterator7NextPkgERKNS_11PkgIteratorE@APTPKG_6.0 0.8.0
 _ZNK8pkgCache11PkgIterator10CurVersionEv@APTPKG_6.0 0.8.0
 _ZNK8pkgCache11PkgIterator5StateEv@APTPKG_6.0 0.8.0
 _ZNK8pkgCache11PkgIterator8FullNameB5cxx11ERKb@APTPKG_6.0 1.1~exp9
 _ZNK8pkgCache11VerIterator10CompareVerERKS0_@APTPKG_6.0 0.8.0
 _ZNK8pkgCache11VerIterator10NewestFileEv@APTPKG_6.0 0.8.0
 _ZNK8pkgCache11VerIterator12DownloadableEv@APTPKG_6.0 0.8.0
 _ZNK8pkgCache11VerIterator13MultiArchTypeEv@APTPKG_6.0 0.9.9.1
 _ZNK8pkgCache11VerIterator21TranslatedDescriptionEv@APTPKG_6.0 0.8.0
 _ZNK8pkgCache11VerIterator32TranslatedDescriptionForLanguageEN3APT10StringViewE@APTPKG_6.0 1.9.11~
 _ZNK8pkgCache11VerIterator6RelStrB5cxx11Ev@APTPKG_6.0 0.8.0
 _ZNK8pkgCache11VerIterator9AutomaticEv@APTPKG_6.0 0.8.0
 _ZNK8pkgCache5sHashEN3APT10StringViewE@APTPKG_6.0 1.9~
 _ZNK8pkgCache6Header10CheckSizesERS0_@APTPKG_6.0 0.8.0
 _ZNK9ARArchive10FindMemberEPKc@APTPKG_6.0 0.8.0
 _ZNK9metaIndex10GetTrustedEv@APTPKG_6.0 1.1~exp9
 _ZNK9metaIndex10GetVersionB5cxx11Ev@APTPKG_6.0 1.5~beta2~
 _ZNK9metaIndex11FindInCacheER8pkgCacheb@APTPKG_6.0 1.1~exp9
 _ZNK9metaIndex11GetCodenameB5cxx11Ev@APTPKG_6.0 1.1~exp9
 _ZNK9metaIndex11GetSignedByB5cxx11Ev@APTPKG_6.0 1.1~exp9
 _ZNK9metaIndex13GetDefaultPinEv@APTPKG_6.0 1.5~beta2~
 _ZNK9metaIndex13GetValidUntilEv@APTPKG_6.0 1.1~exp9
 _ZNK9metaIndex15GetExpectedDistB5cxx11Ev@APTPKG_6.0 1.1~exp9
 _ZNK9metaIndex15GetReleaseNotesB5cxx11Ev@APTPKG_6.0 1.5~beta2~
 _ZNK9metaIndex21GetLoadedSuccessfullyEv@APTPKG_6.0 1.1~exp9
 _ZNK9metaIndex22HasSupportForComponentERKNSt7__cxx1112basic_stringIcSt11char_traitsIcESaIcEEE@APTPKG_6.0 1.5~beta2~
 _ZNK9metaIndex23IsArchitectureSupportedERKNSt7__cxx1112basic_stringIcSt11char_traitsIcESaIcEEE@APTPKG_6.0 1.1~exp15
 _ZNK9metaIndex24GetSupportsAcquireByHashEv@APTPKG_6.0 1.1~exp9
 _ZNK9metaIndex29IsArchitectureAllSupportedForERK11IndexTarget@APTPKG_6.0 1.1.9
 _ZNK9metaIndex5MergeER17pkgCacheGeneratorP10OpProgress@APTPKG_6.0 1.9.11~
 _ZNK9metaIndex6ExistsERKNSt7__cxx1112basic_stringIcSt11char_traitsIcESaIcEEE@APTPKG_6.0 1.1~exp9
 _ZNK9metaIndex6GetURIB5cxx11Ev@APTPKG_6.0 0.8.0
 _ZNK9metaIndex6LookupERKNSt7__cxx1112basic_stringIcSt11char_traitsIcESaIcEEE@APTPKG_6.0 1.1~exp9
 _ZNK9metaIndex7GetDateEv@APTPKG_6.0 1.1~exp9
 _ZNK9metaIndex7GetDistB5cxx11Ev@APTPKG_6.0 0.8.0
 _ZNK9metaIndex7GetTypeEv@APTPKG_6.0 0.8.0
 _ZNK9metaIndex8DescribeB5cxx11Ev@APTPKG_6.0 1.1~exp9
 _ZNK9metaIndex8GetLabelB5cxx11Ev@APTPKG_6.0 1.5~beta2~
 _ZNK9metaIndex8GetSuiteB5cxx11Ev@APTPKG_6.0 1.1~exp9
 _ZNK9metaIndex8MetaKeysB5cxx11Ev@APTPKG_6.0 1.1~exp9
 _ZNK9metaIndex9CheckDistERKNSt7__cxx1112basic_stringIcSt11char_traitsIcESaIcEEE@APTPKG_6.0 1.1~exp9
 _ZNK9metaIndex9GetOriginB5cxx11Ev@APTPKG_6.0 1.5~beta2~
 _ZNKSt10_HashtableINSt7__cxx1112basic_stringIcSt11char_traitsIcESaIcEEESt4pairIKS5_10ConfigTypeESaIS9_ENSt8__detail10_Select1stESt8equal_toIS5_ESt4hashIS5_ENSB_18_Mod_range_hashingENSB_20_Default_ranged_hashENSB_20_Prime_rehash_policyENSB_17_Hashtable_traitsILb1ELb0ELb1EEEE19_M_find_before_nodeEmRS7_m@APTPKG_6.0 0.8.0
 _ZNKSt8_Rb_treeINSt7__cxx1112basic_stringIcSt11char_traitsIcESaIcEEESt4pairIKS5_PN9metaIndex8checkSumEESt10_Select1stISB_ESt4lessIS5_ESaISB_EE4findERS7_@APTPKG_6.0 0.8.0
 _ZNKSt8_Rb_treeINSt7__cxx1112basic_stringIcSt11char_traitsIcESaIcEEESt4pairIKS5_S5_ESt10_Select1stIS8_ESt4lessIS5_ESaIS8_EE4findERS7_@APTPKG_6.0 0.8.0
 _ZNSt10_HashtableINSt7__cxx1112basic_stringIcSt11char_traitsIcESaIcEEESt4pairIKS5_10ConfigTypeESaIS9_ENSt8__detail10_Select1stESt8equal_toIS5_ESt4hashIS5_ENSB_18_Mod_range_hashingENSB_20_Default_ranged_hashENSB_20_Prime_rehash_policyENSB_17_Hashtable_traitsILb1ELb0ELb1EEEE4findERS7_@APTPKG_6.0 0.8.0
 _ZNSt10_HashtableINSt7__cxx1112basic_stringIcSt11char_traitsIcESaIcEEESt4pairIKS5_10ConfigTypeESaIS9_ENSt8__detail10_Select1stESt8equal_toIS5_ESt4hashIS5_ENSB_18_Mod_range_hashingENSB_20_Default_ranged_hashENSB_20_Prime_rehash_policyENSB_17_Hashtable_traitsILb1ELb0ELb1EEEE9_M_rehashEmRKm@APTPKG_6.0 0.8.0
 _ZNSt10_HashtableINSt7__cxx1112basic_stringIcSt11char_traitsIcESaIcEEESt4pairIKS5_N3APT16VersionContainerISt6vectorIN8pkgCache11VerIteratorESaISC_EEEEESaISG_ENSt8__detail10_Select1stESt8equal_toIS5_ESt4hashIS5_ENSI_18_Mod_range_hashingENSI_20_Default_ranged_hashENSI_20_Prime_rehash_policyENSI_17_Hashtable_traitsILb1ELb0ELb1EEEE5clearEv@APTPKG_6.0 0.8.0
 _ZNSt10_HashtableINSt7__cxx1112basic_stringIcSt11char_traitsIcESaIcEEESt4pairIKS5_N3APT16VersionContainerISt6vectorIN8pkgCache11VerIteratorESaISC_EEEEESaISG_ENSt8__detail10_Select1stESt8equal_toIS5_ESt4hashIS5_ENSI_18_Mod_range_hashingENSI_20_Default_ranged_hashENSI_20_Prime_rehash_policyENSI_17_Hashtable_traitsILb1ELb0ELb1EEEE9_M_rehashEmRKm@APTPKG_6.0 0.8.0
 _ZNSt10_HashtableINSt7__cxx1112basic_stringIcSt11char_traitsIcESaIcEEESt4pairIKS5_S5_ESaIS8_ENSt8__detail10_Select1stESt8equal_toIS5_ESt4hashIS5_ENSA_18_Mod_range_hashingENSA_20_Default_ranged_hashENSA_20_Prime_rehash_policyENSA_17_Hashtable_traitsILb1ELb0ELb1EEEE4findERS7_@APTPKG_6.0 0.8.0
 _ZNSt10_HashtableINSt7__cxx1112basic_stringIcSt11char_traitsIcESaIcEEESt4pairIKS5_S5_ESaIS8_ENSt8__detail10_Select1stESt8equal_toIS5_ESt4hashIS5_ENSA_18_Mod_range_hashingENSA_20_Default_ranged_hashENSA_20_Prime_rehash_policyENSA_17_Hashtable_traitsILb1ELb0ELb1EEEEC1IPKS8_EET_SP_mRKSF_RKSD_RKS9_St17integral_constantIbLb1EE@APTPKG_6.0 0.8.0
 _ZNSt10_HashtableINSt7__cxx1112basic_stringIcSt11char_traitsIcESaIcEEESt4pairIKS5_S5_ESaIS8_ENSt8__detail10_Select1stESt8equal_toIS5_ESt4hashIS5_ENSA_18_Mod_range_hashingENSA_20_Default_ranged_hashENSA_20_Prime_rehash_policyENSA_17_Hashtable_traitsILb1ELb0ELb1EEEEC2IPKS8_EET_SP_mRKSF_RKSD_RKS9_St17integral_constantIbLb1EE@APTPKG_6.0 0.8.0
 _ZNSt10_HashtableINSt7__cxx1112basic_stringIcSt11char_traitsIcESaIcEEESt4pairIKS5_St6vectorIS5_SaIS5_EEESaISB_ENSt8__detail10_Select1stESt8equal_toIS5_ESt4hashIS5_ENSD_18_Mod_range_hashingENSD_20_Default_ranged_hashENSD_20_Prime_rehash_policyENSD_17_Hashtable_traitsILb1ELb0ELb1EEEE9_M_rehashEmRKm@APTPKG_6.0 0.8.0
 _ZNSt10_HashtableIPvS0_SaIS0_ENSt8__detail9_IdentityESt8equal_toIS0_ESt4hashIS0_ENS2_18_Mod_range_hashingENS2_20_Default_ranged_hashENS2_20_Prime_rehash_policyENS2_17_Hashtable_traitsILb0ELb1ELb1EEEE9_M_rehashEmRKm@APTPKG_6.0 0.8.0
 _ZNSt10_HashtableIjjSaIjENSt8__detail9_IdentityESt8equal_toIjESt4hashIjENS1_18_Mod_range_hashingENS1_20_Default_ranged_hashENS1_20_Prime_rehash_policyENS1_17_Hashtable_traitsILb0ELb1ELb1EEEE4findERKj@APTPKG_6.0 0.8.0
 _ZNSt10_HashtableIjjSaIjENSt8__detail9_IdentityESt8equal_toIjESt4hashIjENS1_18_Mod_range_hashingENS1_20_Default_ranged_hashENS1_20_Prime_rehash_policyENS1_17_Hashtable_traitsILb0ELb1ELb1EEEE5clearEv@APTPKG_6.0 0.8.0
 _ZNSt10_HashtableIjjSaIjENSt8__detail9_IdentityESt8equal_toIjESt4hashIjENS1_18_Mod_range_hashingENS1_20_Default_ranged_hashENS1_20_Prime_rehash_policyENS1_17_Hashtable_traitsILb0ELb1ELb1EEEE9_M_rehashEmRKm@APTPKG_6.0 0.8.0
 _ZNSt17_Temporary_bufferIN9__gnu_cxx17__normal_iteratorIP6SrvRecSt6vectorIS2_SaIS2_EEEES2_EC1ES7_l@APTPKG_6.0 0.8.0
 _ZNSt17_Temporary_bufferIN9__gnu_cxx17__normal_iteratorIP6SrvRecSt6vectorIS2_SaIS2_EEEES2_EC2ES7_l@APTPKG_6.0 0.8.0
 _ZNSt5dequeINSt7__cxx1112basic_stringIcSt11char_traitsIcESaIcEEESaIS5_EE16_M_push_back_auxIJRKS5_EEEvDpOT_@APTPKG_6.0 0.8.0
 _ZNSt6vectorI10HashStringSaIS0_EE17_M_realloc_insertIJRKS0_EEEvN9__gnu_cxx17__normal_iteratorIPS0_S2_EEDpOT_@APTPKG_6.0 0.8.0
 _ZNSt6vectorI11CdromDeviceSaIS0_EE17_M_realloc_insertIJRKS0_EEEvN9__gnu_cxx17__normal_iteratorIPS0_S2_EEDpOT_@APTPKG_6.0 0.8.0
 _ZNSt6vectorI11IndexTargetSaIS0_EE17_M_realloc_insertIJRKS0_EEEvN9__gnu_cxx17__normal_iteratorIPS0_S2_EEDpOT_@APTPKG_6.0 0.8.0
 _ZNSt6vectorI6SrvRecSaIS0_EE17_M_realloc_insertIJRA1025_cRtS6_S6_EEEvN9__gnu_cxx17__normal_iteratorIPS0_S2_EEDpOT_@APTPKG_6.0 0.8.0
 _ZNSt6vectorIN13pkgSrcRecords4FileESaIS1_EE17_M_realloc_insertIJRKS1_EEEvN9__gnu_cxx17__normal_iteratorIPS1_S3_EEDpOT_@APTPKG_6.0 0.8.0
 _ZNSt6vectorIN13pkgSrcRecords6Parser11BuildDepRecESaIS2_EE17_M_realloc_insertIJS2_EEEvN9__gnu_cxx17__normal_iteratorIPS2_S4_EEDpOT_@APTPKG_6.0 0.8.0
 _ZNSt6vectorIN13pkgTagSection3TagESaIS1_EE17_M_realloc_insertIJS1_EEEvN9__gnu_cxx17__normal_iteratorIPS1_S3_EEDpOT_@APTPKG_6.0 0.8.0
 _ZNSt6vectorIN16pkgAcquireStatus17ReleaseInfoChangeESaIS1_EE17_M_realloc_insertIJS1_EEEvN9__gnu_cxx17__normal_iteratorIPS1_S3_EEDpOT_@APTPKG_6.0 0.8.0
 _ZNSt6vectorIN18pkgProblemResolver11PackageKillESaIS1_EE17_M_realloc_insertIJS1_EEEvN9__gnu_cxx17__normal_iteratorIPS1_S3_EEDpOT_@APTPKG_6.0 0.8.0
 _ZNSt6vectorIN8pkgCache11DepIteratorESaIS1_EE17_M_realloc_insertIJRKS1_EEEvN9__gnu_cxx17__normal_iteratorIPS1_S3_EEDpOT_@APTPKG_6.0 0.8.0
 _ZNSt6vectorIN8pkgCache11PkgIteratorESaIS1_EE17_M_realloc_insertIJRKS1_EEEvN9__gnu_cxx17__normal_iteratorIPS1_S3_EEDpOT_@APTPKG_6.0 0.8.0
 _ZNSt6vectorIN8pkgCache11VerIteratorESaIS1_EE17_M_realloc_insertIJRKS1_EEEvN9__gnu_cxx17__normal_iteratorIPS1_S3_EEDpOT_@APTPKG_6.0 0.8.0
 _ZNSt6vectorIN8pkgCache11VerIteratorESaIS1_EE17_M_realloc_insertIJS1_EEEvN9__gnu_cxx17__normal_iteratorIPS1_S3_EEDpOT_@APTPKG_6.0 0.8.0
 _ZNSt6vectorIN9pkgDPkgPM4ItemESaIS1_EE17_M_realloc_insertIJNS1_3OpsEN8pkgCache11PkgIteratorEEEEvN9__gnu_cxx17__normal_iteratorIPS1_S3_EEDpOT_@APTPKG_6.0 0.8.0
 _ZNSt6vectorIN9pkgDPkgPM4ItemESaIS1_EE17_M_realloc_insertIJNS1_3OpsERN8pkgCache11PkgIteratorEEEEvN9__gnu_cxx17__normal_iteratorIPS1_S3_EEDpOT_@APTPKG_6.0 0.8.0
 _ZNSt6vectorIN9pkgDPkgPM4ItemESaIS1_EE17_M_realloc_insertIJNS1_3OpsERN8pkgCache11PkgIteratorENSt7__cxx1112basic_stringIcSt11char_traitsIcESaIcEEEEEEvN9__gnu_cxx17__normal_iteratorIPS1_S3_EEDpOT_@APTPKG_6.0 0.8.0
 _ZNSt6vectorIN9pkgDPkgPM4ItemESaIS1_EE17_M_realloc_insertIJNS1_3OpsERN8pkgCache11PkgIteratorERNSt7__cxx1112basic_stringIcSt11char_traitsIcESaIcEEEEEEvN9__gnu_cxx17__normal_iteratorIPS1_S3_EEDpOT_@APTPKG_6.0 0.8.0
 _ZNSt6vectorIN9pkgDPkgPM4ItemESaIS1_EE17_M_realloc_insertIJS1_EEEvN9__gnu_cxx17__normal_iteratorIPS1_S3_EEDpOT_@APTPKG_6.0 0.8.0
 _ZNSt6vectorIN9pkgDPkgPM4ItemESaIS1_EE8_M_eraseEN9__gnu_cxx17__normal_iteratorIPS1_S3_EES7_@APTPKG_6.0 0.8.0
 _ZNSt6vectorIN9pkgDPkgPM9DpkgStateESaIS1_EE14_M_insert_rvalEN9__gnu_cxx17__normal_iteratorIPKS1_S3_EEOS1_@APTPKG_6.0 0.8.0
 _ZNSt6vectorIN9pkgDPkgPM9DpkgStateESaIS1_EE17_M_realloc_insertIJRKS1_EEEvN9__gnu_cxx17__normal_iteratorIPS1_S3_EEDpOT_@APTPKG_6.0 0.8.0
 _ZNSt6vectorIN9pkgDPkgPM9DpkgStateESaIS1_EE17_M_realloc_insertIJS1_EEEvN9__gnu_cxx17__normal_iteratorIPS1_S3_EEDpOT_@APTPKG_6.0 0.8.0
 _ZNSt6vectorIN9pkgPolicy3PinESaIS1_EE17_M_realloc_insertIJS1_EEEvN9__gnu_cxx17__normal_iteratorIPS1_S3_EEDpOT_@APTPKG_6.0 0.8.0
 _ZNSt6vectorIN9pkgPolicy6PkgPinESaIS1_EE14_M_insert_rvalEN9__gnu_cxx17__normal_iteratorIPKS1_S3_EEOS1_@APTPKG_6.0 0.8.0
 _ZNSt6vectorIN9pkgPolicy6PkgPinESaIS1_EE17_M_realloc_insertIJS1_EEEvN9__gnu_cxx17__normal_iteratorIPS1_S3_EEDpOT_@APTPKG_6.0 0.8.0
 _ZNSt6vectorINSt7__cxx1112basic_stringIcSt11char_traitsIcESaIcEEESaIS5_EE13_M_insert_auxIS5_EEvN9__gnu_cxx17__normal_iteratorIPS5_S7_EEOT_@APTPKG_6.0 0.8.0
 _ZNSt6vectorINSt7__cxx1112basic_stringIcSt11char_traitsIcESaIcEEESaIS5_EE14_M_emplace_auxIJRA4_KcEEEN9__gnu_cxx17__normal_iteratorIPS5_S7_EENSD_IPKS5_S7_EEDpOT_@APTPKG_6.0 0.8.0
 _ZNSt6vectorINSt7__cxx1112basic_stringIcSt11char_traitsIcESaIcEEESaIS5_EE14_M_emplace_auxIJRA5_KcEEEN9__gnu_cxx17__normal_iteratorIPS5_S7_EENSD_IPKS5_S7_EEDpOT_@APTPKG_6.0 0.8.0
 _ZNSt6vectorINSt7__cxx1112basic_stringIcSt11char_traitsIcESaIcEEESaIS5_EE17_M_realloc_insertIJEEEvN9__gnu_cxx17__normal_iteratorIPS5_S7_EEDpOT_@APTPKG_6.0 0.8.0
 _ZNSt6vectorINSt7__cxx1112basic_stringIcSt11char_traitsIcESaIcEEESaIS5_EE17_M_realloc_insertIJRA4_KcEEEvN9__gnu_cxx17__normal_iteratorIPS5_S7_EEDpOT_@APTPKG_6.0 0.8.0
 _ZNSt6vectorINSt7__cxx1112basic_stringIcSt11char_traitsIcESaIcEEESaIS5_EE17_M_realloc_insertIJRA5_KcEEEvN9__gnu_cxx17__normal_iteratorIPS5_S7_EEDpOT_@APTPKG_6.0 0.8.0
 _ZNSt6vectorINSt7__cxx1112basic_stringIcSt11char_traitsIcESaIcEEESaIS5_EE17_M_realloc_insertIJRA6_KcEEEvN9__gnu_cxx17__normal_iteratorIPS5_S7_EEDpOT_@APTPKG_6.0 0.8.0
 _ZNSt6vectorINSt7__cxx1112basic_stringIcSt11char_traitsIcESaIcEEESaIS5_EE17_M_realloc_insertIJRKS5_EEEvN9__gnu_cxx17__normal_iteratorIPS5_S7_EEDpOT_@APTPKG_6.0 0.8.0
 _ZNSt6vectorINSt7__cxx1112basic_stringIcSt11char_traitsIcESaIcEEESaIS5_EE17_M_realloc_insertIJS5_EEEvN9__gnu_cxx17__normal_iteratorIPS5_S7_EEDpOT_@APTPKG_6.0 0.8.0
 _ZNSt6vectorINSt7__cxx1112basic_stringIcSt11char_traitsIcESaIcEEESaIS5_EE7reserveEm@APTPKG_6.0 0.8.0
 _ZNSt6vectorINSt7__cxx1112basic_stringIcSt11char_traitsIcESaIcEEESaIS5_EE8_M_eraseEN9__gnu_cxx17__normal_iteratorIPS5_S7_EE@APTPKG_6.0 0.8.0
 _ZNSt6vectorINSt7__cxx1112basic_stringIcSt11char_traitsIcESaIcEEESaIS5_EE8_M_eraseEN9__gnu_cxx17__normal_iteratorIPS5_S7_EESB_@APTPKG_6.0 0.8.0
 _ZNSt6vectorIP12pkgIndexFileSaIS1_EE17_M_realloc_insertIJRKS1_EEEvN9__gnu_cxx17__normal_iteratorIPS1_S3_EEDpOT_@APTPKG_6.0 0.8.0
 _ZNSt6vectorIP12pkgIndexFileSaIS1_EE17_M_realloc_insertIJS1_EEEvN9__gnu_cxx17__normal_iteratorIPS1_S3_EEDpOT_@APTPKG_6.0 0.8.0
 _ZNSt6vectorIP9metaIndexSaIS1_EE17_M_realloc_insertIJS1_EEEvN9__gnu_cxx17__normal_iteratorIPS1_S3_EEDpOT_@APTPKG_6.0 0.8.0
 _ZNSt6vectorIPKcSaIS1_EE17_M_realloc_insertIJRKS1_EEEvN9__gnu_cxx17__normal_iteratorIPS1_S3_EEDpOT_@APTPKG_6.0 0.8.0
 _ZNSt6vectorIPKcSaIS1_EE17_M_realloc_insertIJS1_EEEvN9__gnu_cxx17__normal_iteratorIPS1_S3_EEDpOT_@APTPKG_6.0 0.8.0
 _ZNSt6vectorIPN10pkgAcquire4ItemESaIS2_EE17_M_realloc_insertIJRKS2_EEEvN9__gnu_cxx17__normal_iteratorIPS2_S4_EEDpOT_@APTPKG_6.0 0.8.0
 _ZNSt6vectorIPN13pkgSrcRecords6ParserESaIS2_EE17_M_realloc_insertIJRKS2_EEEvN9__gnu_cxx17__normal_iteratorIPS2_S4_EEDpOT_@APTPKG_6.0 0.8.0
 _ZNSt6vectorIPN3APT11CacheFilter7MatcherESaIS3_EE17_M_realloc_insertIJRKS3_EEEvN9__gnu_cxx17__normal_iteratorIPS3_S5_EEDpOT_@APTPKG_6.0 0.8.0
 _ZNSt6vectorIPN3APT8Progress19PackageManagerFancyESaIS3_EE17_M_realloc_insertIJS3_EEEvN9__gnu_cxx17__normal_iteratorIPS3_S5_EEDpOT_@APTPKG_6.0 0.8.0
 _ZNSt6vectorIPN8pkgCache11DepIteratorESaIS2_EE17_M_realloc_insertIJS2_EEEvN9__gnu_cxx17__normal_iteratorIPS2_S4_EEDpOT_@APTPKG_6.0 0.8.0
 _ZNSt6vectorIPN8pkgCache11GrpIteratorESaIS2_EE17_M_realloc_insertIJS2_EEEvN9__gnu_cxx17__normal_iteratorIPS2_S4_EEDpOT_@APTPKG_6.0 0.8.0
 _ZNSt6vectorIPN8pkgCache11PkgIteratorESaIS2_EE17_M_realloc_insertIJS2_EEEvN9__gnu_cxx17__normal_iteratorIPS2_S4_EEDpOT_@APTPKG_6.0 0.8.0
 _ZNSt6vectorIPN8pkgCache11PrvIteratorESaIS2_EE17_M_realloc_insertIJS2_EEEvN9__gnu_cxx17__normal_iteratorIPS2_S4_EEDpOT_@APTPKG_6.0 0.8.0
 _ZNSt6vectorIPN8pkgCache11VerIteratorESaIS2_EE17_M_realloc_insertIJS2_EEEvN9__gnu_cxx17__normal_iteratorIPS2_S4_EEDpOT_@APTPKG_6.0 0.8.0
 _ZNSt6vectorIPN8pkgCache12DescIteratorESaIS2_EE17_M_realloc_insertIJS2_EEEvN9__gnu_cxx17__normal_iteratorIPS2_S4_EEDpOT_@APTPKG_6.0 0.8.0
 _ZNSt6vectorIPN8pkgCache15PkgFileIteratorESaIS2_EE17_M_realloc_insertIJS2_EEEvN9__gnu_cxx17__normal_iteratorIPS2_S4_EEDpOT_@APTPKG_6.0 0.8.0
 _ZNSt6vectorIPN8pkgCache15RlsFileIteratorESaIS2_EE17_M_realloc_insertIJS2_EEEvN9__gnu_cxx17__normal_iteratorIPS2_S4_EEDpOT_@APTPKG_6.0 0.8.0
 _ZNSt6vectorIPcSaIS0_EE17_M_realloc_insertIJS0_EEEvN9__gnu_cxx17__normal_iteratorIPS0_S2_EEDpOT_@APTPKG_6.0 0.8.0
 _ZNSt6vectorISt10unique_ptrIN3APT8Internal17PatternTreeParser4NodeESt14default_deleteIS4_EESaIS7_EE17_M_realloc_insertIJS7_EEEvN9__gnu_cxx17__normal_iteratorIPS7_S9_EEDpOT_@APTPKG_6.0 0.8.0
 _ZNSt6vectorISt4pairIPN9pkgDPkgPM4ItemENSt7__cxx1112basic_stringIcSt11char_traitsIcESaIcEEEESaISA_EE17_M_realloc_insertIJS3_S9_EEEvN9__gnu_cxx17__normal_iteratorIPSA_SC_EEDpOT_@APTPKG_6.0 0.8.0
 _ZNSt6vectorISt4pairIPcmESaIS2_EE17_M_realloc_insertIJS2_EEEvN9__gnu_cxx17__normal_iteratorIPS2_S4_EEDpOT_@APTPKG_6.0 0.8.0
 _ZNSt6vectorIbSaIbEE13_M_reallocateEm@APTPKG_6.0 0.8.0
 _ZNSt6vectorIjSaIjEE17_M_realloc_insertIJRKjEEEvN9__gnu_cxx17__normal_iteratorIPjS1_EEDpOT_@APTPKG_6.0 0.8.0
 _ZNSt6vectorIjSaIjEE17_M_realloc_insertIJjEEEvN9__gnu_cxx17__normal_iteratorIPjS1_EEDpOT_@APTPKG_6.0 0.8.0
 _ZNSt6vectorIjSaIjEE8_M_eraseEN9__gnu_cxx17__normal_iteratorIPjS1_EES5_@APTPKG_6.0 0.8.0
 _ZNSt6vectorIlSaIlEE17_M_realloc_insertIJlEEEvN9__gnu_cxx17__normal_iteratorIPlS1_EEDpOT_@APTPKG_6.0 0.8.0
 _ZNSt7__cxx1110_List_baseIN11GlobalError4ItemESaIS2_EE8_M_clearEv@APTPKG_6.0 0.8.0
 _ZNSt8_Rb_treeIKPKcSt4pairIS2_S3_IS2_bEESt10_Select1stIS5_ESt4lessIS2_ESaIS5_EE22_M_emplace_hint_uniqueIJS3_IS1_S3_IS1_bEEEEESt17_Rb_tree_iteratorIS5_ESt23_Rb_tree_const_iteratorIS5_EDpOT_@APTPKG_6.0 0.8.0
 _ZNSt8_Rb_treeIKPKcSt4pairIS2_S3_IS2_bEESt10_Select1stIS5_ESt4lessIS2_ESaIS5_EE24_M_get_insert_unique_posERS2_@APTPKG_6.0 0.8.0
 _ZNSt8_Rb_treeIKPKcSt4pairIS2_S3_IS2_bEESt10_Select1stIS5_ESt4lessIS2_ESaIS5_EE29_M_get_insert_hint_unique_posESt23_Rb_tree_const_iteratorIS5_ERS2_@APTPKG_6.0 0.8.0
 _ZNSt8_Rb_treeIN8pkgCache11PkgIteratorES1_St9_IdentityIS1_ESt4lessIS1_ESaIS1_EE16_M_insert_uniqueIRKS1_EESt4pairISt17_Rb_tree_iteratorIS1_EbEOT_@APTPKG_6.0 0.8.0
 _ZNSt8_Rb_treeIN8pkgCache11PkgIteratorES1_St9_IdentityIS1_ESt4lessIS1_ESaIS1_EE24_M_get_insert_unique_posERKS1_@APTPKG_6.0 0.8.0
 _ZNSt8_Rb_treeINSt7__cxx1112basic_stringIcSt11char_traitsIcESaIcEEES5_St9_IdentityIS5_ESt4lessIS5_ESaIS5_EE16_M_insert_uniqueIRKS5_EESt4pairISt17_Rb_tree_iteratorIS5_EbEOT_@APTPKG_6.0 0.8.0
 _ZNSt8_Rb_treeINSt7__cxx1112basic_stringIcSt11char_traitsIcESaIcEEES5_St9_IdentityIS5_ESt4lessIS5_ESaIS5_EE16_M_insert_uniqueIS5_EESt4pairISt17_Rb_tree_iteratorIS5_EbEOT_@APTPKG_6.0 0.8.0
 _ZNSt8_Rb_treeINSt7__cxx1112basic_stringIcSt11char_traitsIcESaIcEEES5_St9_IdentityIS5_ESt4lessIS5_ESaIS5_EE4findERKS5_@APTPKG_6.0 0.8.0
 _ZNSt8_Rb_treeINSt7__cxx1112basic_stringIcSt11char_traitsIcESaIcEEESt4pairIKS5_PN9metaIndex8checkSumEESt10_Select1stISB_ESt4lessIS5_ESaISB_EE24_M_get_insert_unique_posERS7_@APTPKG_6.0 0.8.0
 _ZNSt8_Rb_treeINSt7__cxx1112basic_stringIcSt11char_traitsIcESaIcEEESt4pairIKS5_PN9metaIndex8checkSumEESt10_Select1stISB_ESt4lessIS5_ESaISB_EE29_M_get_insert_hint_unique_posESt23_Rb_tree_const_iteratorISB_ERS7_@APTPKG_6.0 0.8.0
 _ZNSt8_Rb_treeINSt7__cxx1112basic_stringIcSt11char_traitsIcESaIcEEESt4pairIKS5_S5_ESt10_Select1stIS8_ESt4lessIS5_ESaIS8_EE17_M_emplace_uniqueIJRA10_KcRS7_EEES6_ISt17_Rb_tree_iteratorIS8_EbEDpOT_@APTPKG_6.0 0.8.0
 _ZNSt8_Rb_treeINSt7__cxx1112basic_stringIcSt11char_traitsIcESaIcEEESt4pairIKS5_S5_ESt10_Select1stIS8_ESt4lessIS5_ESaIS8_EE17_M_emplace_uniqueIJRA11_KcRA5_SG_EEES6_ISt17_Rb_tree_iteratorIS8_EbEDpOT_@APTPKG_6.0 0.8.0
 _ZNSt8_Rb_treeINSt7__cxx1112basic_stringIcSt11char_traitsIcESaIcEEESt4pairIKS5_S5_ESt10_Select1stIS8_ESt4lessIS5_ESaIS8_EE17_M_emplace_uniqueIJRA13_KcS7_EEES6_ISt17_Rb_tree_iteratorIS8_EbEDpOT_@APTPKG_6.0 0.8.0
 _ZNSt8_Rb_treeINSt7__cxx1112basic_stringIcSt11char_traitsIcESaIcEEESt4pairIKS5_S5_ESt10_Select1stIS8_ESt4lessIS5_ESaIS8_EE17_M_emplace_uniqueIJRA15_KcRA5_SG_EEES6_ISt17_Rb_tree_iteratorIS8_EbEDpOT_@APTPKG_6.0 0.8.0
 _ZNSt8_Rb_treeINSt7__cxx1112basic_stringIcSt11char_traitsIcESaIcEEESt4pairIKS5_S5_ESt10_Select1stIS8_ESt4lessIS5_ESaIS8_EE17_M_emplace_uniqueIJRA15_KcRS7_EEES6_ISt17_Rb_tree_iteratorIS8_EbEDpOT_@APTPKG_6.0 0.8.0
 _ZNSt8_Rb_treeINSt7__cxx1112basic_stringIcSt11char_traitsIcESaIcEEESt4pairIKS5_S5_ESt10_Select1stIS8_ESt4lessIS5_ESaIS8_EE17_M_emplace_uniqueIJRA20_KcS7_EEES6_ISt17_Rb_tree_iteratorIS8_EbEDpOT_@APTPKG_6.0 0.8.0
 _ZNSt8_Rb_treeINSt7__cxx1112basic_stringIcSt11char_traitsIcESaIcEEESt4pairIKS5_S5_ESt10_Select1stIS8_ESt4lessIS5_ESaIS8_EE17_M_emplace_uniqueIJRA22_KcRA4_SG_EEES6_ISt17_Rb_tree_iteratorIS8_EbEDpOT_@APTPKG_6.0 0.8.0
 _ZNSt8_Rb_treeINSt7__cxx1112basic_stringIcSt11char_traitsIcESaIcEEESt4pairIKS5_S5_ESt10_Select1stIS8_ESt4lessIS5_ESaIS8_EE17_M_emplace_uniqueIJRA28_KcRA5_SG_EEES6_ISt17_Rb_tree_iteratorIS8_EbEDpOT_@APTPKG_6.0 0.8.0
 _ZNSt8_Rb_treeINSt7__cxx1112basic_stringIcSt11char_traitsIcESaIcEEESt4pairIKS5_S5_ESt10_Select1stIS8_ESt4lessIS5_ESaIS8_EE17_M_emplace_uniqueIJRA9_KcRS7_EEES6_ISt17_Rb_tree_iteratorIS8_EbEDpOT_@APTPKG_6.0 0.8.0
 _ZNSt8_Rb_treeINSt7__cxx1112basic_stringIcSt11char_traitsIcESaIcEEESt4pairIKS5_S5_ESt10_Select1stIS8_ESt4lessIS5_ESaIS8_EE17_M_emplace_uniqueIJS6_IPKcS5_EEEES6_ISt17_Rb_tree_iteratorIS8_EbEDpOT_@APTPKG_6.0 0.8.0
 _ZNSt8_Rb_treeINSt7__cxx1112basic_stringIcSt11char_traitsIcESaIcEEESt4pairIKS5_S5_ESt10_Select1stIS8_ESt4lessIS5_ESaIS8_EE17_M_emplace_uniqueIJS6_IPKcSH_EEEES6_ISt17_Rb_tree_iteratorIS8_EbEDpOT_@APTPKG_6.0 0.8.0
 _ZNSt8_Rb_treeINSt7__cxx1112basic_stringIcSt11char_traitsIcESaIcEEESt4pairIKS5_S5_ESt10_Select1stIS8_ESt4lessIS5_ESaIS8_EE24_M_get_insert_unique_posERS7_@APTPKG_6.0 0.8.0
 _ZNSt8_Rb_treeINSt7__cxx1112basic_stringIcSt11char_traitsIcESaIcEEESt4pairIKS5_S5_ESt10_Select1stIS8_ESt4lessIS5_ESaIS8_EE29_M_get_insert_hint_unique_posESt23_Rb_tree_const_iteratorIS8_ERS7_@APTPKG_6.0 0.8.0
 _ZNSt8_Rb_treeINSt7__cxx1112basic_stringIcSt11char_traitsIcESaIcEEESt4pairIKS5_St6vectorIN9pkgDPkgPM9DpkgStateESaISA_EEESt10_Select1stISD_ESt4lessIS5_ESaISD_EE24_M_get_insert_unique_posERS7_@APTPKG_6.0 0.8.0
 _ZNSt8_Rb_treeINSt7__cxx1112basic_stringIcSt11char_traitsIcESaIcEEESt4pairIKS5_St6vectorIN9pkgDPkgPM9DpkgStateESaISA_EEESt10_Select1stISD_ESt4lessIS5_ESaISD_EE29_M_get_insert_hint_unique_posESt23_Rb_tree_const_iteratorISD_ERS7_@APTPKG_6.0 0.8.0
 _ZNSt8_Rb_treeINSt7__cxx1112basic_stringIcSt11char_traitsIcESaIcEEESt4pairIKS5_St6vectorIN9pkgDPkgPM9DpkgStateESaISA_EEESt10_Select1stISD_ESt4lessIS5_ESaISD_EE4findERS7_@APTPKG_6.0 0.8.0
 _ZNSt8_Rb_treeINSt7__cxx1112basic_stringIcSt11char_traitsIcESaIcEEESt4pairIKS5_jESt10_Select1stIS8_ESt4lessIS5_ESaIS8_EE24_M_get_insert_unique_posERS7_@APTPKG_6.0 0.8.0
 _ZNSt8_Rb_treeINSt7__cxx1112basic_stringIcSt11char_traitsIcESaIcEEESt4pairIKS5_jESt10_Select1stIS8_ESt4lessIS5_ESaIS8_EE29_M_get_insert_hint_unique_posESt23_Rb_tree_const_iteratorIS8_ERS7_@APTPKG_6.0 0.8.0
 _ZNSt8_Rb_treeIiiSt9_IdentityIiESt4lessIiESaIiEE16_M_insert_uniqueIRKiEESt4pairISt17_Rb_tree_iteratorIiEbEOT_@APTPKG_6.0 0.8.0
 _ZNSt8_Rb_treeIiiSt9_IdentityIiESt4lessIiESaIiEE24_M_get_insert_unique_posERKi@APTPKG_6.0 0.8.0
 _ZNSt8_Rb_treeIjSt4pairIKjjESt10_Select1stIS2_ESt4lessIjESaIS2_EE24_M_get_insert_unique_posERS1_@APTPKG_6.0 0.8.0
 _ZNSt8_Rb_treeIjSt4pairIKjjESt10_Select1stIS2_ESt4lessIjESaIS2_EE29_M_get_insert_hint_unique_posESt23_Rb_tree_const_iteratorIS2_ERS1_@APTPKG_6.0 0.8.0
 _ZNSt8_Rb_treeIjjSt9_IdentityIjESt4lessIjESaIjEE17_M_emplace_uniqueIJRKjEEESt4pairISt17_Rb_tree_iteratorIjEbEDpOT_@APTPKG_6.0 0.8.0
 _ZNSt8__detail18__to_chars_10_implIjEEvPcjT_@APTPKG_6.0 0.8.0
 _ZNSt8__detail18__to_chars_10_implImEEvPcjT_@APTPKG_6.0 0.8.0
 _ZNSt8__detail9_Map_baseINSt7__cxx1112basic_stringIcSt11char_traitsIcESaIcEEESt4pairIKS6_N3APT16VersionContainerISt6vectorIN8pkgCache11VerIteratorESaISD_EEEEESaISH_ENS_10_Select1stESt8equal_toIS6_ESt4hashIS6_ENS_18_Mod_range_hashingENS_20_Default_ranged_hashENS_20_Prime_rehash_policyENS_17_Hashtable_traitsILb1ELb0ELb1EEELb1EEixEOS6_@APTPKG_6.0 0.8.0
 _ZNSt8__detail9_Map_baseINSt7__cxx1112basic_stringIcSt11char_traitsIcESaIcEEESt4pairIKS6_S6_ESaIS9_ENS_10_Select1stESt8equal_toIS6_ESt4hashIS6_ENS_18_Mod_range_hashingENS_20_Default_ranged_hashENS_20_Prime_rehash_policyENS_17_Hashtable_traitsILb1ELb0ELb1EEELb1EEixERS8_@APTPKG_6.0 0.8.0
 _ZNSt8seed_seq8generateIPjEEvT_S2_@APTPKG_6.0 2.6.1
 _ZNSt8seed_seqC1IN9__gnu_cxx17__normal_iteratorIPcNSt7__cxx1112basic_stringIcSt11char_traitsIcESaIcEEEEEEET_SB_@APTPKG_6.0 2.6.1
 _ZNSt8seed_seqC2IN9__gnu_cxx17__normal_iteratorIPcNSt7__cxx1112basic_stringIcSt11char_traitsIcESaIcEEEEEEET_SB_@APTPKG_6.0 2.6.1
 _ZSt16__do_uninit_copyIN9__gnu_cxx17__normal_iteratorIPK10HashStringSt6vectorIS2_SaIS2_EEEEPS2_ET0_T_SB_SA_@APTPKG_6.0 2.6.1
 _ZSt16__do_uninit_copyIN9__gnu_cxx17__normal_iteratorIPKN3APT13Configuration10CompressorESt6vectorIS4_SaIS4_EEEEPS4_ET0_T_SD_SC_@APTPKG_6.0 2.6.1
 _ZSt16__do_uninit_copyIN9__gnu_cxx17__normal_iteratorIPKNSt7__cxx1112basic_stringIcSt11char_traitsIcESaIcEEESt6vectorIS7_SaIS7_EEEEPS7_ET0_T_SG_SF_@APTPKG_6.0 0.8.0
 _ZSt16__do_uninit_copyIPKNSt7__cxx1112basic_stringIcSt11char_traitsIcESaIcEEEPS5_ET0_T_SA_S9_@APTPKG_6.0 0.8.0
 _ZSt7shuffleIN9__gnu_cxx17__normal_iteratorIP11IndexTargetSt6vectorIS2_SaIS2_EEEERSt26linear_congruential_engineImLm16807ELm0ELm2147483647EEEvT_SB_OT0_@APTPKG_6.0 1.3~rc2
 _ZStplIcSt11char_traitsIcESaIcEENSt7__cxx1112basic_stringIT_T0_T1_EEPKS5_RKS8_@APTPKG_6.0 0.8.0
 _ZStplIcSt11char_traitsIcESaIcEENSt7__cxx1112basic_stringIT_T0_T1_EERKS8_SA_@APTPKG_6.0 0.8.0
 _ZStplIcSt11char_traitsIcESaIcEENSt7__cxx1112basic_stringIT_T0_T1_EES5_RKS8_@APTPKG_6.0 0.8.0
 _ZTI10ExtractTar@APTPKG_6.0 0.8.0
 _ZTI10OpProgress@APTPKG_6.0 0.8.0
 _ZTI10SourceCopy@APTPKG_6.0 0.8.0
 _ZTI10pkgAcqFile@APTPKG_6.0 0.8.0
 _ZTI10pkgAcquire@APTPKG_6.0 0.8.0
 _ZTI10pkgRecords@APTPKG_6.0 1.1~exp9
 _ZTI10pkgTagFile@APTPKG_6.0 0.8.16~exp6
 _ZTI11PackageCopy@APTPKG_6.0 0.8.0
 _ZTI11pkgDepCache@APTPKG_6.0 0.8.0
 _ZTI11pkgSimulate@APTPKG_6.0 0.8.0
 _ZTI12pkgAcqMethod@APTPKG_6.0 0.8.0
 _ZTI12pkgCacheFile@APTPKG_6.0 0.8.0
 _ZTI12pkgDirStream@APTPKG_6.0 0.8.0
 _ZTI12pkgIndexFile@APTPKG_6.0 0.8.0
 _ZTI12pkgOrderList@APTPKG_6.0 1.1~exp9
 _ZTI13pkgAcqArchive@APTPKG_6.0 0.8.0
 _ZTI13pkgSourceList@APTPKG_6.0 1.1~exp9
 _ZTI13pkgSrcRecords@APTPKG_6.0 0.8.16~exp6
 _ZTI13pkgTagSection@APTPKG_6.0 0.8.0
 _ZTI14OpTextProgress@APTPKG_6.0 0.8.0
 _ZTI14pkgCdromStatus@APTPKG_6.0 1.1~exp9
 _ZTI15debDscFileIndex@APTPKG_6.0 1.1~exp9
 _ZTI15pkgAcqChangelog@APTPKG_6.0 1.1~exp9
 _ZTI16TranslationsCopy@APTPKG_6.0 1.1~exp9
 _ZTI16pkgAcquireStatus@APTPKG_6.0 0.8.0
 _ZTI17pkgArchiveCleaner@APTPKG_6.0 0.8.0
 _ZTI17pkgPackageManager@APTPKG_6.0 0.8.0
 _ZTI18pkgDebianIndexFile@APTPKG_6.0 1.1~exp9
 _ZTI18pkgProblemResolver@APTPKG_6.0 1.1~exp9
 _ZTI19debVersioningSystem@APTPKG_6.0 0.8.0
 _ZTI19pkgUdevCdromDevices@APTPKG_6.0 0.8.0
 _ZTI19pkgVersioningSystem@APTPKG_6.0 0.8.0
 _ZTI21debStringPackageIndex@APTPKG_6.0 1.2.2
 _ZTI22pkgDebianIndexRealFile@APTPKG_6.0 1.1~exp9
 _ZTI24pkgDebianIndexTargetFile@APTPKG_6.0 1.1~exp9
 _ZTI6FileFd@APTPKG_6.0 0.8.0
 _ZTI6Hashes@APTPKG_6.0 1.1~exp1
 _ZTI8pkgCache@APTPKG_6.0 0.8.0
 _ZTI8pkgCdrom@APTPKG_6.0 1.1~exp9
 _ZTI9IndexCopy@APTPKG_6.0 0.8.0
 _ZTI9SigVerify@APTPKG_6.0 1.1~exp9
 _ZTI9metaIndex@APTPKG_6.0 0.8.0
 _ZTI9pkgDPkgPM@APTPKG_6.0 0.8.0
 _ZTI9pkgPolicy@APTPKG_6.0 0.8.0
 _ZTI9pkgSystem@APTPKG_6.0 0.8.0
 _ZTIN10debDebFile14ControlExtractE@APTPKG_6.0 0.8.0
 _ZTIN10debDebFile17MemControlExtractE@APTPKG_6.0 0.8.0
 _ZTIN10pkgAcquire11UriIteratorE@APTPKG_6.0 0.8.16~exp6
 _ZTIN10pkgAcquire12MethodConfigE@APTPKG_6.0 0.8.16~exp6
 _ZTIN10pkgAcquire4ItemE@APTPKG_6.0 0.8.0
 _ZTIN10pkgAcquire5QueueE@APTPKG_6.0 0.8.16~exp6
 _ZTIN10pkgAcquire6WorkerE@APTPKG_6.0 0.8.16~exp6
 _ZTIN10pkgRecords6ParserE@APTPKG_6.0 0.8.0
 _ZTIN11pkgDepCache11ActionGroupE@APTPKG_6.0 1.1~exp9
 _ZTIN11pkgDepCache13InRootSetFuncE@APTPKG_6.0 0.8.0
 _ZTIN11pkgDepCache18DefaultRootSetFuncE@APTPKG_6.0 0.8.0
 _ZTIN11pkgDepCache6PolicyE@APTPKG_6.0 0.8.0
 _ZTIN11pkgSimulate6PolicyE@APTPKG_6.0 0.8.0
 _ZTIN12pkgAcqMethod11FetchResultE@APTPKG_6.0 1.1~exp9
 _ZTIN12pkgAcqMethod9FetchItemE@APTPKG_6.0 1.1~exp9
 _ZTIN12pkgIndexFile4TypeE@APTPKG_6.0 0.8.0
 _ZTIN13Configuration18MatchAgainstConfigE@APTPKG_6.0 0.8.0
 _ZTIN13pkgSourceList4TypeE@APTPKG_6.0 0.8.0
 _ZTIN13pkgSrcRecords6ParserE@APTPKG_6.0 0.8.0
 _ZTIN3APT11CacheFilter10ANDMatcherE@APTPKG_6.0 1.1~exp4
 _ZTIN3APT11CacheFilter10NOTMatcherE@APTPKG_6.0 1.1~exp4
 _ZTIN3APT11CacheFilter11TrueMatcherE@APTPKG_6.0 1.1~exp4
 _ZTIN3APT11CacheFilter12FalseMatcherE@APTPKG_6.0 1.1~exp4
 _ZTIN3APT11CacheFilter14PackageMatcherE@APTPKG_6.0 1.1~exp4
 _ZTIN3APT11CacheFilter19PackageIsNewInstallE@APTPKG_6.0 1.1~exp4
 _ZTIN3APT11CacheFilter23PackageNameMatchesRegExE@APTPKG_6.0 1.1~exp4
 _ZTIN3APT11CacheFilter25PackageNameMatchesFnmatchE@APTPKG_6.0 1.1~exp4
 _ZTIN3APT11CacheFilter39PackageArchitectureMatchesSpecificationE@APTPKG_6.0 1.1~exp4
 _ZTIN3APT11CacheFilter7MatcherE@APTPKG_6.0 1.1~exp4
 _ZTIN3APT11CacheFilter9ORMatcherE@APTPKG_6.0 1.1~exp4
 _ZTIN3APT14CacheSetHelperE@APTPKG_6.0 0.8.0
 _ZTIN3APT15PackageUniverseE@APTPKG_6.0 1.1~exp9
 _ZTIN3APT16PackageContainerINSt7__cxx114listIN8pkgCache11PkgIteratorESaIS4_EEEEE@APTPKG_6.0 0.8.16~exp9
 _ZTIN3APT16PackageContainerISt3setIN8pkgCache11PkgIteratorESt4lessIS3_ESaIS3_EEEE@APTPKG_6.0 0.8.16~exp9
 _ZTIN3APT16PackageContainerISt6vectorIN8pkgCache11PkgIteratorESaIS3_EEEE@APTPKG_6.0 1.9.11~
 _ZTIN3APT16VersionContainerINSt7__cxx114listIN8pkgCache11VerIteratorESaIS4_EEEEE@APTPKG_6.0 0.8.16~exp9
 _ZTIN3APT16VersionContainerISt6vectorIN8pkgCache11VerIteratorESaIS3_EEEE@APTPKG_6.0 1.1~exp15
 _ZTIN3APT25PackageContainerInterfaceE@APTPKG_6.0 0.8.16~exp9
 _ZTIN3APT25VersionContainerInterfaceE@APTPKG_6.0 0.8.16~exp9
 _ZTIN3APT8Internal17PatternTreeParser11PatternNodeE@APTPKG_6.0 1.9.11~
 _ZTIN3APT8Internal17PatternTreeParser4NodeE@APTPKG_6.0 1.9.11~
 _ZTIN3APT8Internal17PatternTreeParser5ErrorE@APTPKG_6.0 1.9.11~
 _ZTIN3APT8Internal17PatternTreeParser8WordNodeE@APTPKG_6.0 1.9.11~
 _ZTIN3APT8Progress14PackageManagerE@APTPKG_6.0 0.9.13~exp1
 _ZTIN3APT8Progress18PackageManagerTextE@APTPKG_6.0 0.9.13~exp1
 _ZTIN3APT8Progress19PackageManagerFancyE@APTPKG_6.0 0.9.13~exp1
 _ZTIN3APT8Progress24PackageManagerProgressFdE@APTPKG_6.0 0.9.13~exp1
 _ZTIN3APT8Progress30PackageManagerProgressDeb822FdE@APTPKG_6.0 0.9.13~exp1
 _ZTIN8pkgCache9NamespaceE@APTPKG_6.0 0.8.0
 _ZTISt11_Mutex_baseILN9__gnu_cxx12_Lock_policyE2EE@APTPKG_6.0 1.9.11~
 _ZTISt16_Sp_counted_baseILN9__gnu_cxx12_Lock_policyE2EE@APTPKG_6.0 1.9.11~
 _ZTS10ExtractTar@APTPKG_6.0 0.8.0
 _ZTS10OpProgress@APTPKG_6.0 0.8.0
 _ZTS10SourceCopy@APTPKG_6.0 0.8.0
 _ZTS10pkgAcqFile@APTPKG_6.0 0.8.0
 _ZTS10pkgAcquire@APTPKG_6.0 0.8.0
 _ZTS10pkgRecords@APTPKG_6.0 1.1~exp9
 _ZTS10pkgTagFile@APTPKG_6.0 0.8.16~exp6
 _ZTS11PackageCopy@APTPKG_6.0 0.8.0
 _ZTS11pkgDepCache@APTPKG_6.0 0.8.0
 _ZTS11pkgSimulate@APTPKG_6.0 0.8.0
 _ZTS12pkgAcqMethod@APTPKG_6.0 0.8.0
 _ZTS12pkgCacheFile@APTPKG_6.0 0.8.0
 _ZTS12pkgDirStream@APTPKG_6.0 0.8.0
 _ZTS12pkgIndexFile@APTPKG_6.0 0.8.0
 _ZTS12pkgOrderList@APTPKG_6.0 1.1~exp9
 _ZTS13pkgAcqArchive@APTPKG_6.0 0.8.0
 _ZTS13pkgSourceList@APTPKG_6.0 1.1~exp9
 _ZTS13pkgSrcRecords@APTPKG_6.0 0.8.16~exp6
 _ZTS13pkgTagSection@APTPKG_6.0 0.8.0
 _ZTS14OpTextProgress@APTPKG_6.0 0.8.0
 _ZTS14pkgCdromStatus@APTPKG_6.0 1.1~exp9
 _ZTS15debDscFileIndex@APTPKG_6.0 1.1~exp9
 _ZTS15pkgAcqChangelog@APTPKG_6.0 1.1~exp9
 _ZTS16TranslationsCopy@APTPKG_6.0 1.1~exp9
 _ZTS16pkgAcquireStatus@APTPKG_6.0 0.8.0
 _ZTS17pkgArchiveCleaner@APTPKG_6.0 0.8.0
 _ZTS17pkgPackageManager@APTPKG_6.0 0.8.0
 _ZTS18pkgDebianIndexFile@APTPKG_6.0 1.1~exp9
 _ZTS18pkgProblemResolver@APTPKG_6.0 1.1~exp9
 _ZTS19debVersioningSystem@APTPKG_6.0 0.8.0
 _ZTS19pkgUdevCdromDevices@APTPKG_6.0 0.8.0
 _ZTS19pkgVersioningSystem@APTPKG_6.0 0.8.0
 _ZTS21debStringPackageIndex@APTPKG_6.0 1.2.2
 _ZTS22pkgDebianIndexRealFile@APTPKG_6.0 1.1~exp9
 _ZTS24pkgDebianIndexTargetFile@APTPKG_6.0 1.1~exp9
 _ZTS6FileFd@APTPKG_6.0 0.8.0
 _ZTS6Hashes@APTPKG_6.0 1.1~exp1
 _ZTS8pkgCache@APTPKG_6.0 0.8.0
 _ZTS8pkgCdrom@APTPKG_6.0 1.1~exp9
 _ZTS9IndexCopy@APTPKG_6.0 0.8.0
 _ZTS9SigVerify@APTPKG_6.0 1.1~exp9
 _ZTS9metaIndex@APTPKG_6.0 0.8.0
 _ZTS9pkgDPkgPM@APTPKG_6.0 0.8.0
 _ZTS9pkgPolicy@APTPKG_6.0 0.8.0
 _ZTS9pkgSystem@APTPKG_6.0 0.8.0
 _ZTSN10debDebFile14ControlExtractE@APTPKG_6.0 0.8.0
 _ZTSN10debDebFile17MemControlExtractE@APTPKG_6.0 0.8.0
 _ZTSN10pkgAcquire11UriIteratorE@APTPKG_6.0 0.8.16~exp6
 _ZTSN10pkgAcquire12MethodConfigE@APTPKG_6.0 0.8.16~exp6
 _ZTSN10pkgAcquire4ItemE@APTPKG_6.0 0.8.0
 _ZTSN10pkgAcquire5QueueE@APTPKG_6.0 0.8.16~exp6
 _ZTSN10pkgAcquire6WorkerE@APTPKG_6.0 0.8.16~exp6
 _ZTSN10pkgRecords6ParserE@APTPKG_6.0 0.8.0
 _ZTSN11pkgDepCache11ActionGroupE@APTPKG_6.0 1.1~exp9
 _ZTSN11pkgDepCache13InRootSetFuncE@APTPKG_6.0 0.8.0
 _ZTSN11pkgDepCache18DefaultRootSetFuncE@APTPKG_6.0 0.8.0
 _ZTSN11pkgDepCache6PolicyE@APTPKG_6.0 0.8.0
 _ZTSN11pkgSimulate6PolicyE@APTPKG_6.0 0.8.0
 _ZTSN12pkgAcqMethod11FetchResultE@APTPKG_6.0 1.1~exp9
 _ZTSN12pkgAcqMethod9FetchItemE@APTPKG_6.0 1.1~exp9
 _ZTSN12pkgIndexFile4TypeE@APTPKG_6.0 0.8.0
 _ZTSN13Configuration18MatchAgainstConfigE@APTPKG_6.0 0.8.0
 _ZTSN13pkgSourceList4TypeE@APTPKG_6.0 0.8.0
 _ZTSN13pkgSrcRecords6ParserE@APTPKG_6.0 0.8.0
 _ZTSN3APT11CacheFilter10ANDMatcherE@APTPKG_6.0 1.1~exp4
 _ZTSN3APT11CacheFilter10NOTMatcherE@APTPKG_6.0 1.1~exp4
 _ZTSN3APT11CacheFilter11TrueMatcherE@APTPKG_6.0 1.1~exp4
 _ZTSN3APT11CacheFilter12FalseMatcherE@APTPKG_6.0 1.1~exp4
 _ZTSN3APT11CacheFilter14PackageMatcherE@APTPKG_6.0 1.1~exp4
 _ZTSN3APT11CacheFilter19PackageIsNewInstallE@APTPKG_6.0 1.1~exp4
 _ZTSN3APT11CacheFilter23PackageNameMatchesRegExE@APTPKG_6.0 1.1~exp4
 _ZTSN3APT11CacheFilter25PackageNameMatchesFnmatchE@APTPKG_6.0 1.1~exp4
 _ZTSN3APT11CacheFilter39PackageArchitectureMatchesSpecificationE@APTPKG_6.0 1.1~exp4
 _ZTSN3APT11CacheFilter7MatcherE@APTPKG_6.0 1.1~exp4
 _ZTSN3APT11CacheFilter9ORMatcherE@APTPKG_6.0 1.1~exp4
 _ZTSN3APT14CacheSetHelperE@APTPKG_6.0 0.8.0
 _ZTSN3APT15PackageUniverseE@APTPKG_6.0 1.1~exp9
 _ZTSN3APT16PackageContainerINSt7__cxx114listIN8pkgCache11PkgIteratorESaIS4_EEEEE@APTPKG_6.0 0.8.16~exp9
 _ZTSN3APT16PackageContainerISt3setIN8pkgCache11PkgIteratorESt4lessIS3_ESaIS3_EEEE@APTPKG_6.0 0.8.16~exp9
 _ZTSN3APT16PackageContainerISt6vectorIN8pkgCache11PkgIteratorESaIS3_EEEE@APTPKG_6.0 1.9.11~
 _ZTSN3APT16VersionContainerINSt7__cxx114listIN8pkgCache11VerIteratorESaIS4_EEEEE@APTPKG_6.0 0.8.16~exp9
 _ZTSN3APT16VersionContainerISt6vectorIN8pkgCache11VerIteratorESaIS3_EEEE@APTPKG_6.0 1.1~exp15
 _ZTSN3APT25PackageContainerInterfaceE@APTPKG_6.0 0.8.16~exp9
 _ZTSN3APT25VersionContainerInterfaceE@APTPKG_6.0 0.8.16~exp9
 _ZTSN3APT8Internal17PatternTreeParser11PatternNodeE@APTPKG_6.0 1.9.11~
 _ZTSN3APT8Internal17PatternTreeParser4NodeE@APTPKG_6.0 1.9.11~
 _ZTSN3APT8Internal17PatternTreeParser5ErrorE@APTPKG_6.0 1.9.11~
 _ZTSN3APT8Internal17PatternTreeParser8WordNodeE@APTPKG_6.0 1.9.11~
 _ZTSN3APT8Progress14PackageManagerE@APTPKG_6.0 0.9.13~exp1
 _ZTSN3APT8Progress18PackageManagerTextE@APTPKG_6.0 0.9.13~exp1
 _ZTSN3APT8Progress19PackageManagerFancyE@APTPKG_6.0 0.9.13~exp1
 _ZTSN3APT8Progress24PackageManagerProgressFdE@APTPKG_6.0 0.9.13~exp1
 _ZTSN3APT8Progress30PackageManagerProgressDeb822FdE@APTPKG_6.0 0.9.13~exp1
 _ZTSN8pkgCache9NamespaceE@APTPKG_6.0 0.8.0
 _ZTSSt11_Mutex_baseILN9__gnu_cxx12_Lock_policyE2EE@APTPKG_6.0 1.9.11~
 _ZTSSt16_Sp_counted_baseILN9__gnu_cxx12_Lock_policyE2EE@APTPKG_6.0 1.9.11~
 _ZTV10ExtractTar@APTPKG_6.0 0.8.0
 _ZTV10OpProgress@APTPKG_6.0 0.8.0
 _ZTV10SourceCopy@APTPKG_6.0 0.8.0
 _ZTV10pkgAcqFile@APTPKG_6.0 0.8.0
 _ZTV10pkgAcquire@APTPKG_6.0 0.8.0
 _ZTV10pkgRecords@APTPKG_6.0 1.1~exp9
 _ZTV10pkgTagFile@APTPKG_6.0 0.8.16~exp6
 _ZTV11PackageCopy@APTPKG_6.0 0.8.0
 _ZTV11pkgDepCache@APTPKG_6.0 0.8.0
 _ZTV11pkgSimulate@APTPKG_6.0 0.8.0
 _ZTV12pkgAcqMethod@APTPKG_6.0 0.8.0
 _ZTV12pkgCacheFile@APTPKG_6.0 0.8.0
 _ZTV12pkgDirStream@APTPKG_6.0 0.8.0
 _ZTV12pkgIndexFile@APTPKG_6.0 0.8.0
 _ZTV12pkgOrderList@APTPKG_6.0 1.1~exp9
 _ZTV13pkgAcqArchive@APTPKG_6.0 0.8.0
 _ZTV13pkgSourceList@APTPKG_6.0 1.1~exp9
 _ZTV13pkgSrcRecords@APTPKG_6.0 0.8.16~exp6
 _ZTV13pkgTagSection@APTPKG_6.0 0.8.0
 _ZTV14OpTextProgress@APTPKG_6.0 0.8.0
 _ZTV14pkgCdromStatus@APTPKG_6.0 1.1~exp9
 _ZTV15debDscFileIndex@APTPKG_6.0 1.1~exp9
 _ZTV15pkgAcqChangelog@APTPKG_6.0 1.1~exp9
 _ZTV16TranslationsCopy@APTPKG_6.0 1.1~exp9
 _ZTV16pkgAcquireStatus@APTPKG_6.0 0.8.0
 _ZTV17pkgArchiveCleaner@APTPKG_6.0 0.8.0
 _ZTV17pkgPackageManager@APTPKG_6.0 0.8.0
 _ZTV18pkgDebianIndexFile@APTPKG_6.0 1.1~exp9
 _ZTV18pkgProblemResolver@APTPKG_6.0 1.1~exp9
 _ZTV19debVersioningSystem@APTPKG_6.0 0.8.0
 _ZTV19pkgUdevCdromDevices@APTPKG_6.0 0.8.0
 _ZTV19pkgVersioningSystem@APTPKG_6.0 0.8.0
 _ZTV21debStringPackageIndex@APTPKG_6.0 1.2.2
 _ZTV22pkgDebianIndexRealFile@APTPKG_6.0 1.1~exp9
 _ZTV24pkgDebianIndexTargetFile@APTPKG_6.0 1.1~exp9
 _ZTV6FileFd@APTPKG_6.0 0.8.0
 _ZTV6Hashes@APTPKG_6.0 1.1~exp1
 _ZTV8pkgCache@APTPKG_6.0 0.8.0
 _ZTV8pkgCdrom@APTPKG_6.0 1.1~exp9
 _ZTV9IndexCopy@APTPKG_6.0 0.8.0
 _ZTV9SigVerify@APTPKG_6.0 1.1~exp9
 _ZTV9metaIndex@APTPKG_6.0 0.8.0
 _ZTV9pkgDPkgPM@APTPKG_6.0 0.8.0
 _ZTV9pkgPolicy@APTPKG_6.0 0.8.0
 _ZTV9pkgSystem@APTPKG_6.0 0.8.0
 _ZTVN10debDebFile14ControlExtractE@APTPKG_6.0 0.8.0
 _ZTVN10debDebFile17MemControlExtractE@APTPKG_6.0 0.8.0
 _ZTVN10pkgAcquire11UriIteratorE@APTPKG_6.0 0.8.16~exp6
 _ZTVN10pkgAcquire12MethodConfigE@APTPKG_6.0 0.8.16~exp6
 _ZTVN10pkgAcquire4ItemE@APTPKG_6.0 0.8.0
 _ZTVN10pkgAcquire5QueueE@APTPKG_6.0 0.8.16~exp6
 _ZTVN10pkgAcquire6WorkerE@APTPKG_6.0 0.8.16~exp6
 _ZTVN10pkgRecords6ParserE@APTPKG_6.0 0.8.0
 _ZTVN11pkgDepCache11ActionGroupE@APTPKG_6.0 1.1~exp9
 _ZTVN11pkgDepCache13InRootSetFuncE@APTPKG_6.0 0.8.0
 _ZTVN11pkgDepCache18DefaultRootSetFuncE@APTPKG_6.0 0.8.0
 _ZTVN11pkgDepCache6PolicyE@APTPKG_6.0 0.8.0
 _ZTVN11pkgSimulate6PolicyE@APTPKG_6.0 0.8.0
 _ZTVN12pkgAcqMethod11FetchResultE@APTPKG_6.0 1.1~exp9
 _ZTVN12pkgAcqMethod9FetchItemE@APTPKG_6.0 1.1~exp9
 _ZTVN12pkgIndexFile4TypeE@APTPKG_6.0 0.8.0
 _ZTVN13Configuration18MatchAgainstConfigE@APTPKG_6.0 0.8.0
 _ZTVN13pkgSourceList4TypeE@APTPKG_6.0 0.8.0
 _ZTVN13pkgSrcRecords6ParserE@APTPKG_6.0 0.8.0
 _ZTVN3APT11CacheFilter10ANDMatcherE@APTPKG_6.0 1.1~exp4
 _ZTVN3APT11CacheFilter10NOTMatcherE@APTPKG_6.0 1.1~exp4
 _ZTVN3APT11CacheFilter11TrueMatcherE@APTPKG_6.0 1.1~exp4
 _ZTVN3APT11CacheFilter12FalseMatcherE@APTPKG_6.0 1.1~exp4
 _ZTVN3APT11CacheFilter14PackageMatcherE@APTPKG_6.0 1.1~exp4
 _ZTVN3APT11CacheFilter19PackageIsNewInstallE@APTPKG_6.0 1.1~exp4
 _ZTVN3APT11CacheFilter23PackageNameMatchesRegExE@APTPKG_6.0 1.1~exp4
 _ZTVN3APT11CacheFilter25PackageNameMatchesFnmatchE@APTPKG_6.0 1.1~exp4
 _ZTVN3APT11CacheFilter39PackageArchitectureMatchesSpecificationE@APTPKG_6.0 1.1~exp4
 _ZTVN3APT11CacheFilter7MatcherE@APTPKG_6.0 1.1~exp4
 _ZTVN3APT11CacheFilter9ORMatcherE@APTPKG_6.0 1.1~exp4
 _ZTVN3APT14CacheSetHelperE@APTPKG_6.0 0.8.0
 _ZTVN3APT15PackageUniverseE@APTPKG_6.0 1.1~exp9
 _ZTVN3APT16PackageContainerINSt7__cxx114listIN8pkgCache11PkgIteratorESaIS4_EEEEE@APTPKG_6.0 0.8.16~exp9
 _ZTVN3APT16PackageContainerISt3setIN8pkgCache11PkgIteratorESt4lessIS3_ESaIS3_EEEE@APTPKG_6.0 0.8.16~exp9
 _ZTVN3APT16PackageContainerISt6vectorIN8pkgCache11PkgIteratorESaIS3_EEEE@APTPKG_6.0 1.9.11~
 _ZTVN3APT16VersionContainerINSt7__cxx114listIN8pkgCache11VerIteratorESaIS4_EEEEE@APTPKG_6.0 0.8.16~exp9
 _ZTVN3APT16VersionContainerISt6vectorIN8pkgCache11VerIteratorESaIS3_EEEE@APTPKG_6.0 1.1~exp15
 _ZTVN3APT25PackageContainerInterfaceE@APTPKG_6.0 0.8.16~exp9
 _ZTVN3APT25VersionContainerInterfaceE@APTPKG_6.0 0.8.16~exp9
 _ZTVN3APT8Internal17PatternTreeParser11PatternNodeE@APTPKG_6.0 1.9.11~
 _ZTVN3APT8Internal17PatternTreeParser4NodeE@APTPKG_6.0 1.9.11~
 _ZTVN3APT8Internal17PatternTreeParser5ErrorE@APTPKG_6.0 1.9.11~
 _ZTVN3APT8Internal17PatternTreeParser8WordNodeE@APTPKG_6.0 1.9.11~
 _ZTVN3APT8Progress14PackageManagerE@APTPKG_6.0 0.9.13~exp1
 _ZTVN3APT8Progress18PackageManagerTextE@APTPKG_6.0 0.9.13~exp1
 _ZTVN3APT8Progress19PackageManagerFancyE@APTPKG_6.0 0.9.13~exp1
 _ZTVN3APT8Progress24PackageManagerProgressFdE@APTPKG_6.0 0.9.13~exp1
 _ZTVN3APT8Progress30PackageManagerProgressDeb822FdE@APTPKG_6.0 0.9.13~exp1
 _ZZNSt8__detail18__to_chars_10_implIjEEvPcjT_E8__digits@APTPKG_6.0 0.8.0
 _ZZNSt8__detail18__to_chars_10_implImEEvPcjT_E8__digits@APTPKG_6.0 0.8.0
 _ZZNSt8__detail18__to_chars_10_implIyEEvPcjT_E8__digits@APTPKG_6.0 0.8.0
 _ZlsRSoRKN3APT9PrettyDepE@APTPKG_6.0 1.3~exp1
 _ZlsRSoRKN3APT9PrettyPkgE@APTPKG_6.0 1.3~exp1
 _config@APTPKG_6.0 0.8.0
 _system@APTPKG_6.0 0.8.0
 debVS@APTPKG_6.0 0.8.0
 pkgLibVersion@APTPKG_6.0 0.8.0
 pkgVersion@APTPKG_6.0 0.8.0
